
C:/diy-x86os-master/start/start/build/source/kernel/kernel.elf:     file format elf32-i386
C:/diy-x86os-master/start/start/build/source/kernel/kernel.elf
architecture: i386, flags 0x00000112:
EXEC_P, HAS_SYMS, D_PAGED
start address 0x00010000

Program Header:
    LOAD off    0x00001000 vaddr 0x00010000 paddr 0x00010000 align 2**12
         filesz 0x00006da4 memsz 0x00006da4 flags r-x
    LOAD off    0x00008000 vaddr 0x00017000 paddr 0x00017000 align 2**12
         filesz 0x0000009c memsz 0x0005d47c flags rw-
    LOAD off    0x00009000 vaddr 0x80000000 paddr 0x0007447c align 2**12
         filesz 0x00000343 memsz 0x00000343 flags rwx

Sections:
Idx Name          Size      VMA       LMA       File off  Algn
  0 .text         00005e7c  00010000  00010000  00001000  2**0
                  CONTENTS, ALLOC, LOAD, READONLY, CODE
  1 .first_task   00000343  80000000  0007447c  00009000  2**0
                  CONTENTS, ALLOC, LOAD, CODE
  2 .data         0000009c  00017000  00017000  00008000  2**5
                  CONTENTS, ALLOC, LOAD, DATA
  3 .bss          0005c47c  00018000  00018000  0000809c  2**12
                  ALLOC
  4 .debug_line   000036e8  00000000  00000000  00009343  2**0
                  CONTENTS, READONLY, DEBUGGING
  5 .debug_info   0000c48d  00000000  00000000  0000ca2b  2**0
                  CONTENTS, READONLY, DEBUGGING
  6 .debug_abbrev 00002913  00000000  00000000  00018eb8  2**0
                  CONTENTS, READONLY, DEBUGGING
  7 .debug_aranges 000002e0  00000000  00000000  0001b7d0  2**3
                  CONTENTS, READONLY, DEBUGGING
  8 .rodata       00000f24  00015e80  00015e80  00006e80  2**5
                  CONTENTS, ALLOC, LOAD, READONLY, DATA
  9 .debug_ranges 000000a8  00000000  00000000  0001bab0  2**0
                  CONTENTS, READONLY, DEBUGGING
 10 .debug_str    0000238f  00000000  00000000  0001bb58  2**0
                  CONTENTS, READONLY, DEBUGGING
 11 .comment      00000011  00000000  00000000  0001dee7  2**0
                  CONTENTS, READONLY
 12 .debug_frame  00002244  00000000  00000000  0001def8  2**2
                  CONTENTS, READONLY, DEBUGGING
SYMBOL TABLE:
00010000 l    d  .text	00000000 .text
80000000 l    d  .first_task	00000000 .first_task
00017000 l    d  .data	00000000 .data
00018000 l    d  .bss	00000000 .bss
00000000 l    d  .debug_line	00000000 .debug_line
00000000 l    d  .debug_info	00000000 .debug_info
00000000 l    d  .debug_abbrev	00000000 .debug_abbrev
00000000 l    d  .debug_aranges	00000000 .debug_aranges
00015e80 l    d  .rodata	00000000 .rodata
00000000 l    d  .debug_ranges	00000000 .debug_ranges
00000000 l    d  .debug_str	00000000 .debug_str
00000000 l    d  .comment	00000000 .comment
00000000 l    d  .debug_frame	00000000 .debug_frame
00000000 l    df *ABS*	00000000 CMakeFiles/kernel.dir/init/start.S.obj
00010013 l       .text	00000000 gdt_reload
00000000 l    df *ABS*	00000000 memory.c
00010311 l     F .text	00000017 up2
00010328 l     F .text	0000000d down2
00010335 l     F .text	0000000c write_cr3
00010341 l     F .text	00000014 pde_index
00010355 l     F .text	00000027 pde_paddr
0001037c l     F .text	00000010 pte_index
0001038c l     F .text	00000027 pte_paddr
000103b3 l     F .text	0000000f get_pte_perm
000103c2 l     F .text	00000011 mmu_set_page_dir
0001a000 l     O .bss	00000028 paddr_alloc
0001b000 l     O .bss	00001000 kernel_page_dir
000103d3 l     F .text	00000013 current_page_dir
000103e6 l     F .text	00000058 addr_alloc_init
0001043e l     F .text	00000067 addr_alloc_page
000104a5 l     F .text	00000062 addr_free_page
00010507 l     F .text	00000066 show_mem_info
0001056d l     F .text	0000003c total_mem_size
00015fe8 l     O .rodata	00000012 __func__.2383
00017000 l     O .data	00000050 kernel_map.2395
00015ffc l     O .rodata	00000013 __func__.2423
00016010 l     O .rodata	00000011 __func__.2496
00016024 l     O .rodata	0000000c __func__.2508
00016030 l     O .rodata	00000009 __func__.2516
00000000 l    df *ABS*	00000000 syscall.c
00016040 l     O .rodata	00000194 sys_table
00000000 l    df *ABS*	00000000 task.c
00010f95 l     F .text	0000001b list_node_init
00010fb0 l     F .text	0000000b list_node_next
00010fbb l     F .text	0000000b list_count
00010fc6 l     F .text	0000000a list_first
00010fd0 l     F .text	0000000c write_cr3
00010fdc l     F .text	00000007 hlt
00010fe3 l     F .text	0000000c write_tr
00010fef l     F .text	00000011 mmu_set_page_dir
0001c000 l     O .bss	00001000 idle_task_stack
0001d000 l     O .bss	000005b8 task_manager
0001d5c0 l     O .bss	00016200 task_table
000337c0 l     O .bss	00000014 task_table_mutex
00011000 l     F .text	000001ab tss_init
0001638c l     O .rodata	0000000a __func__.2857
00016398 l     O .rodata	00000010 __func__.2877
0001142e l     F .text	0000000a idle_task_entry
000115ec l     F .text	00000043 task_next_run
00011832 l     F .text	00000069 alloc_task
0001189b l     F .text	00000030 free_task
00011af8 l     F .text	00000129 load_phdr
000163a8 l     O .rodata	0000000a __func__.2972
00011c21 l     F .text	00000213 load_elf_file
00011e34 l     F .text	00000130 copy_args
000163b4 l     O .rodata	0000000a __func__.3007
00000000 l    df *ABS*	00000000 cpu.c
0001222e l     F .text	00000028 lgdt
00012256 l     F .text	0000001a far_jump
000337e0 l     O .bss	00000800 gdt_table
00033fe0 l     O .bss	00000014 mutex
00000000 l    df *ABS*	00000000 irq.c
000124a0 l     F .text	0000001d inb
000124bd l     F .text	0000001f outb
000124dc l     F .text	00000007 cli
000124e3 l     F .text	00000007 sti
000124ea l     F .text	00000028 lidt
00012512 l     F .text	00000011 read_cr2
00012523 l     F .text	00000007 hlt
0001252a l     F .text	00000010 read_eflags
0001253a l     F .text	0000000b write_eflags
00034000 l     O .bss	00000400 idt_table
00012545 l     F .text	000000ff dump_core_regs
00012644 l     F .text	0000004e do_default_handler
00012a13 l     F .text	00000093 init_pic
00000000 l    df *ABS*	00000000 console.c
00012e0a l     F .text	0000001d inb
00012e27 l     F .text	0000001f outb
00034400 l     O .bss	00000340 console_buf
00034740 l     O .bss	00000004 curr_console_idx
00012e46 l     F .text	00000074 read_cursor_pos
00012eba l     F .text	000000c1 update_cursor_pos
00012f7b l     F .text	00000085 clear_display
00013000 l     F .text	00000091 erase_rows
00013091 l     F .text	00000088 scroll_up
00013119 l     F .text	00000010 move_to_col0
00013129 l     F .text	00000038 move_next_line
00013161 l     F .text	00000076 move_forward
000131d7 l     F .text	00000094 show_char
0001338e l     F .text	00000078 move_backword
00013406 l     F .text	0000003a erase_backword
00013440 l     F .text	00000073 move_next_tab
000134b3 l     F .text	000000b8 write_normal
0001356b l     F .text	00000037 move_left
000135a2 l     F .text	00000049 move_right
000135eb l     F .text	00000033 move_cursor
0001361e l     F .text	00000029 clear_esc_param
00013647 l     F .text	00000075 write_esc
000136bc l     F .text	00000051 erase_in_display
0001370d l     F .text	00000099 set_font_style
00016960 l     O .rodata	00000020 color_table.2406
000137a6 l     F .text	00000107 write_esc_square
00000000 l    df *ABS*	00000000 dev.c
00017050 l     O .data	00000004 dev_desc_tbl
00034760 l     O .bss	00000a00 dev_tbl
00013b4a l     F .text	0000003e is_devid_bad
00000000 l    df *ABS*	00000000 kbd.c
00013e39 l     F .text	0000001d inb
00013e56 l     F .text	0000001f outb
00035160 l     O .bss	00000004 kbd_state
00016980 l     O .rodata	00000200 map_table
00013e75 l     F .text	00000015 get_key
00013e8a l     F .text	0000001a is_make_code
00013f4e l     F .text	00000045 update_led_status
00013f93 l     F .text	0000003c do_fx_key
00013fcf l     F .text	000001d0 do_normal_key
0001419f l     F .text	0000008a do_e0_key
00035164 l     O .bss	00000004 recv_state.2126
00035168 l     O .bss	00000004 inited.2136
00000000 l    df *ABS*	00000000 time.c
0001432b l     F .text	0000001f outb
0003516c l     O .bss	00000004 sys_tick
0001434a l     F .text	00000060 init_pic
00000000 l    df *ABS*	00000000 tty.c
00035180 l     O .bss	000022a0 tty_devs
00037420 l     O .bss	00000004 curr_tty
0001452a l     F .text	0000004f get_tty
00000000 l    df *ABS*	00000000 file.c
00037440 l     O .bss	00024000 file_table
0005b440 l     O .bss	00000014 file_alloc_mutex
00000000 l    df *ABS*	00000000 fs.c
00014b0b l     F .text	0000001d inb
00014b28 l     F .text	0000001f inw
00014b47 l     F .text	0000001f outb
0005b460 l     O .bss	00019000 TEMP_ADDR
00074460 l     O .bss	00000004 temp_pos
00014b66 l     F .text	0000001d is_fd_bad
00014b83 l     F .text	0000012f read_disk
00014cb2 l     F .text	00000021 is_path_valid
00000000 l    df *ABS*	00000000 init.c
00016d40 l     O .rodata	00000013 __func__.2852
00000000 l    df *ABS*	00000000 mutex.c
000150f4 l     F .text	0000000b list_count
00000000 l    df *ABS*	00000000 sem.c
0001527e l     F .text	0000000b list_count
00000000 l    df *ABS*	00000000 bitmap.c
00000000 l    df *ABS*	00000000 klib.c
00015607 l     F .text	00000007 hlt
00017098 l     O .data	00000004 num2ch.1927
00000000 l    df *ABS*	00000000 list.c
00015b9f l     F .text	00000013 list_is_empty
00000000 l    df *ABS*	00000000 log.c
00074464 l     O .bss	00000004 log_dev_id
00074468 l     O .bss	00000014 mutex
00000000 l    df *ABS*	00000000 first_task.c
00000000 l    df *ABS*	00000000 lib_syscall.c
800000ce l     F .first_task	0000004c sys_call
000154ff g     F .text	0000003a bitmap_get_bit
0001577e g     F .text	0000004f kernel_memcpy
00014f39 g     F .text	0000000a sys_close
00011581 g     F .text	0000000a task_current
800001cf g     F .first_task	0000001b yield
00012dab g     F .text	0000000b irq_enable_global
00015c36 g     F .text	00000064 list_insert_last
00012182 g     F .text	00000032 task_file
000102b2 g       .text	00000000 exception_handler_kbd
00010dda g     F .text	0000010c sys_sbrk
00012121 g     F .text	00000061 sys_yield
000117ce g     F .text	00000064 sys_msleep
000127c6 g     F .text	0000001c do_handler_segment_not_present
00011522 g     F .text	00000034 task_set_ready
00015539 g     F .text	0000001b bitmap_is_set
000157cd g     F .text	00000041 kernel_memset
00013d1e g     F .text	0000004c dev_write
00014f15 g     F .text	00000024 sys_lseek
000142eb g     F .text	00000040 kbd_init
00010274 g       .text	00000000 exception_handler_virtual_exception
00010f00 g     F .text	00000095 do_handler_syscall
00015b72 g     F .text	0000002d strings_count
0001246f g     F .text	0000001e cpu_init
00015d97 g     F .text	0000002f log_init
0001196a g     F .text	0000018e sys_fork
0001509e g     F .text	00000056 init_main
00010219 g       .text	00000000 exception_handler_alignment_check
000122ef g     F .text	00000039 gdt_free_sel
00010ee6 g     F .text	0000001a sys_print_msg
0001560e g     F .text	00000047 kernel_strcpy
00017000 g       .data	00000000 s_data
800001a2 g     F .first_task	0000002d execve
80000144 g     F .first_task	0000001b getpid
00012c8e g     F .text	0000008b irq_enable
00010035 g       .text	00000000 exception_handler_unknown
000100b1 g       .text	00000000 exception_handler_breakpoint
0001271e g     F .text	0000001c do_handler_overflow
0001281a g     F .text	0000001c do_handler_alignment_check
00010659 g     F .text	0000008c memory_create_map
00014e42 g     F .text	00000086 sys_read
00013f05 g     F .text	00000035 kbd_wait_recv_ready
000138ad g     F .text	000000b7 console_select
000101c0 g       .text	00000000 exception_handler_general_protection
0001288a g     F .text	000000b5 do_handler_general_protection
00013289 g     F .text	0000001e restore_cursor
00015399 g     F .text	00000029 sem_count
80000010 g     F .first_task	000000be first_task_main
000126ae g     F .text	0000001c do_handler_divider
0001542b g     F .text	000000d4 bitmap_set_bit
0001278e g     F .text	0000001c do_handler_double_fault
0001293f g     F .text	000000d4 do_handler_page_fault
800002e0 g     F .first_task	00000021 isatty
0001014c g       .text	00000000 exception_handler_double_fault
00012db6 g     F .text	0000002b pic_send_eoi
00011424 g     F .text	0000000a task_first_task
00010000 g       .text	00000000 s_text
000107a0 g     F .text	00000085 memory_create_uvm
000152ac g     F .text	0000006b sem_wait
00010cd1 g     F .text	00000025 memory_alloc_page_for
000143aa g     F .text	00000028 do_handler_timer
000101a3 g       .text	00000000 exception_handler_stack_segment_fault
80000000 g       .first_task	00000000 first_task_entry
00014f4d g     F .text	0000000a sys_fstat
00013cd2 g     F .text	0000004c dev_read
0001286e g     F .text	0000001c do_handler_virtual_exception
000100d0 g       .text	00000000 exception_handler_overflow
00012328 g     F .text	00000075 get_alloc_desc
000102d1 g       .text	00000000 simple_switch
8000028c g     F .first_task	0000002d lseek
00018000 g     O .bss	00002000 stack
00014f57 g     F .text	0000000e fs_init
00014aa3 g     F .text	00000038 file_inc_ref
00010c38 g     F .text	00000099 memory_free_page
0007447c g       *ABS*	00000000 s_first_task
00012207 g     F .text	00000027 task_remove_fd
00014880 g     F .text	000000ba tty_control
000132a7 g     F .text	000000e7 console_init
0001475f g     F .text	00000121 tty_read
000118e1 g     F .text	00000089 task_uninit
00010b52 g     F .text	000000cc memory_alloc_for_page_dir
00014421 g     F .text	0000007f tty_fifo_get
000100ef g       .text	00000000 exception_handler_bound_range
00014940 g     F .text	0000006d tty_in
00015317 g     F .text	00000082 sem_notify
00010acf g     F .text	00000083 memory_copy_uvm_data
00013d6a g     F .text	0000004c dev_control
00014229 g     F .text	000000c2 do_handler_kbd
00012756 g     F .text	0000001c do_handler_invalid_opcode
00010169 g       .text	00000000 exception_handler_invalid_tss
000127fe g     F .text	0000001c do_handler_fpu_error
0001133a g     F .text	000000ea task_first_init
00012836 g     F .text	0000001c do_handler_machine_check
8000023e g     F .first_task	0000002d write
00014cd3 g     F .text	0000016f sys_open
000126ca g     F .text	0000001c do_handler_Debug
800002b9 g     F .first_task	00000027 fstat
00014f43 g     F .text	0000000a sys_isatty
00015bd7 g     F .text	0000005f list_insert_first
00013b88 g     F .text	0000014a dev_open
000117ae g     F .text	00000020 task_set_wakeup
000126e6 g     F .text	0000001c do_handler_NMI
00010054 g       .text	00000000 exception_handler_divider
000143ea g     F .text	00000037 tty_fifo_init
00015655 g     F .text	00000070 kernel_strncpy
00012da0 g     F .text	0000000b irq_disable_global
0001158b g     F .text	00000061 sys_sched_yield
00014ec8 g     F .text	0000004d sys_write
000747bf g       *ABS*	00000000 mem_free_start
00013ed9 g     F .text	0000002c kbd_write
00015003 g     F .text	00000035 kernel_init
00015289 g     F .text	00000023 sem_init
00010000 g       .text	00000000 _start
000159ab g     F .text	0000014b kernel_vsprintf
00015b2c g     F .text	00000046 get_file_name
0001012d g       .text	00000000 exception_handler_device_unavailable
0001010e g       .text	00000000 exception_handler_invalid_opcode
00013db6 g     F .text	00000083 dev_close
0001326b g     F .text	0000001e save_cursor
0007447c g       .bss	00000000 e_data
80000211 g     F .first_task	0000002d read
0001512d g     F .text	00000094 mutex_lock
000121b4 g     F .text	00000053 task_alloc_fd
00010236 g       .text	00000000 exception_handler_machine_check
00014672 g     F .text	000000ed tty_write
000127aa g     F .text	0000001c do_handler_invalid_tss
00000000 g       *ABS*	00000000 kernel_base
000144a0 g     F .text	0000008a tty_fifo_put
000747bf g       *ABS*	00000000 e_first_task
00011774 g     F .text	0000003a task_set_sleep
00014f65 g     F .text	0000009e sys_dup
00015af6 g     F .text	00000036 panic
00010293 g       .text	00000000 exception_handler_timer
00012c54 g     F .text	0000003a irq_install
0001239d g     F .text	0000008b init_gdt
00014579 g     F .text	000000f9 tty_open
80000187 g     F .first_task	0000001b fork
00012de1 g     F .text	00000018 irq_enter_protection
000150ff g     F .text	0000002e mutex_init
00012d19 g     F .text	00000087 irq_disable
80000301 g     F .first_task	00000021 sbrk
00010255 g       .text	00000000 exception_handler_smd_exception
00010825 g     F .text	0000010f memory_destroy_uvm
000153c2 g     F .text	00000016 bitmap_byte_count
00012772 g     F .text	0000001c do_handler_device_unavailable
0001162f g     F .text	0000005b task_dispatch
00010934 g     F .text	00000155 memory_copy_uvm
0001493a g     F .text	00000006 tty_close
00015038 g     F .text	00000066 move_to_first_task
0001248d g     F .text	00000013 switch_to_tss
00013a34 g     F .text	00000110 console_write
00013ea4 g     F .text	00000035 kbd_wait_send_ready
80000322 g     F .first_task	00000021 dup
0001580e g     F .text	0000005e kernel_memcmp
000106e5 g     F .text	000000bb create_kernel_table
00015bb2 g     F .text	00000025 list_init
00012852 g     F .text	0000001c do_handler_smd_exception
000101dd g       .text	00000000 exception_handler_page_fault
00011556 g     F .text	0000002b task_set_block
00012692 g     F .text	0000001c do_handler_unknown
00010c1e g     F .text	0000001a memory_alloc_page
000101fa g       .text	00000000 exception_handler_fpu_error
000112ef g     F .text	0000001e task_switch_from_to
00012aa6 g     F .text	000001ae irq_init
000151c1 g     F .text	000000bd mutex_unlock
00014adb g     F .text	00000030 file_table_init
00012df9 g     F .text	00000011 irq_leave_protection
00014a61 g     F .text	00000042 file_free
00013f3a g     F .text	00000014 kbd_read
8000015f g     F .first_task	00000028 print_msg
00015743 g     F .text	0000003b kernel_strlen
00012270 g     F .text	0000007f segment_desc_set
0001273a g     F .text	0000001c do_handler_bound_range
000102e6 g       .text	00000000 exception_handler_syscall
00015c9a g     F .text	00000078 list_remove_first
00016da4 g       .rodata	00000000 e_text
000156c5 g     F .text	0000007e kernel_strncmp
000153d8 g     F .text	00000053 bitmap_init
00010186 g       .text	00000000 exception_handler_segment_not_present
00013964 g     F .text	000000d0 console_set_cursor
00010092 g       .text	00000000 exception_handler_NMI
00015554 g     F .text	000000b3 bitmap_alloc_nbits
000149d6 g     F .text	0000008b file_alloc
00011438 g     F .text	000000ea task_manager_init
0001130d g     F .text	0000002d task_start
00010073 g       .text	00000000 exception_handler_Debug
0001168a g     F .text	000000ea task_time_tick
00010cf6 g     F .text	000000e4 memory_init
00011f64 g     F .text	000001bd sys_execve
000149ad g     F .text	00000029 tty_select
00013b44 g     F .text	00000006 console_close
00010a89 g     F .text	00000046 memory_get_paddr
000127e2 g     F .text	0000001c do_handler_stack_segment_fault
00012702 g     F .text	0000001c do_handler_breakpoint
00015dc6 g     F .text	000000b6 log_printf
000111ab g     F .text	00000144 task_init
800001ea g     F .first_task	00000027 open
000118cb g     F .text	00000016 sys_getpid
0001586c g     F .text	0000013f kernel_itoa
00015d12 g     F .text	00000085 list_remove
00012428 g     F .text	00000047 gate_desc_set
8000011a g     F .first_task	0000002a msleep
8000026b g     F .first_task	00000021 close
000105a9 g     F .text	000000b0 find_pte
000143d2 g     F .text	00000018 time_init
00017060 g     O .data	00000038 dev_tty_desc



Disassembly of section .text:

00010000 <_start>:
    .extern kernel_init
    .extern init_main
    .global _start
    # void start (boot_info_t *boot_info)
_start:
    push %ebp
   10000:	55                   	push   %ebp
    mov %esp, %ebp
   10001:	89 e5                	mov    %esp,%ebp
    mov 0x8(%ebp), %eax
   10003:	8b 45 08             	mov    0x8(%ebp),%eax

    # mov 4(%esp), %eax
    # kernel_init(boot_info)
    push %eax
   10006:	50                   	push   %eax
    call kernel_init
   10007:	e8 f7 4f 00 00       	call   15003 <kernel_init>
    jmp $KERNEL_SELECTOR_CS, $gdt_reload # 重新加载GDT
   1000c:	ea 13 00 01 00 08 00 	ljmp   $0x8,$0x10013

00010013 <gdt_reload>:
gdt_reload:
    mov $KERNEL_SELECTOR_DS, %ax
   10013:	66 b8 10 00          	mov    $0x10,%ax
	mov %ax, %ds
   10017:	8e d8                	mov    %eax,%ds
	mov %ax, %ss
   10019:	8e d0                	mov    %eax,%ss
	mov %ax, %es
   1001b:	8e c0                	mov    %eax,%es
	mov %ax, %fs
   1001d:	8e e0                	mov    %eax,%fs
	mov %ax, %gs
   1001f:	8e e8                	mov    %eax,%gs

    ; mov $stack, %eax
   10021:	b8 00 80 01 00       	mov    $0x18000,%eax
    ; mov $KERNEL_STACK_SIZE, %ebx
   10026:	bb 00 20 00 00       	mov    $0x2000,%ebx

    mov $(stack + KERNEL_STACK_SIZE), %esp
   1002b:	bc 00 a0 01 00       	mov    $0x1a000,%esp
    jmp init_main
   10030:	e9 69 50 00 00       	jmp    1509e <init_main>

00010035 <exception_handler_unknown>:
    add $(2*4), %esp

    iret
.endm

exception_handler unknown, -1, 0
   10035:	6a 00                	push   $0x0
   10037:	6a ff                	push   $0xffffffff
   10039:	60                   	pusha  
   1003a:	1e                   	push   %ds
   1003b:	06                   	push   %es
   1003c:	0f a0                	push   %fs
   1003e:	0f a8                	push   %gs
   10040:	54                   	push   %esp
   10041:	e8 4c 26 00 00       	call   12692 <do_handler_unknown>
   10046:	83 c4 04             	add    $0x4,%esp
   10049:	0f a9                	pop    %gs
   1004b:	0f a1                	pop    %fs
   1004d:	07                   	pop    %es
   1004e:	1f                   	pop    %ds
   1004f:	61                   	popa   
   10050:	83 c4 08             	add    $0x8,%esp
   10053:	cf                   	iret   

00010054 <exception_handler_divider>:
exception_handler divider, 0, 0
   10054:	6a 00                	push   $0x0
   10056:	6a 00                	push   $0x0
   10058:	60                   	pusha  
   10059:	1e                   	push   %ds
   1005a:	06                   	push   %es
   1005b:	0f a0                	push   %fs
   1005d:	0f a8                	push   %gs
   1005f:	54                   	push   %esp
   10060:	e8 49 26 00 00       	call   126ae <do_handler_divider>
   10065:	83 c4 04             	add    $0x4,%esp
   10068:	0f a9                	pop    %gs
   1006a:	0f a1                	pop    %fs
   1006c:	07                   	pop    %es
   1006d:	1f                   	pop    %ds
   1006e:	61                   	popa   
   1006f:	83 c4 08             	add    $0x8,%esp
   10072:	cf                   	iret   

00010073 <exception_handler_Debug>:
exception_handler Debug, 1, 0
   10073:	6a 00                	push   $0x0
   10075:	6a 01                	push   $0x1
   10077:	60                   	pusha  
   10078:	1e                   	push   %ds
   10079:	06                   	push   %es
   1007a:	0f a0                	push   %fs
   1007c:	0f a8                	push   %gs
   1007e:	54                   	push   %esp
   1007f:	e8 46 26 00 00       	call   126ca <do_handler_Debug>
   10084:	83 c4 04             	add    $0x4,%esp
   10087:	0f a9                	pop    %gs
   10089:	0f a1                	pop    %fs
   1008b:	07                   	pop    %es
   1008c:	1f                   	pop    %ds
   1008d:	61                   	popa   
   1008e:	83 c4 08             	add    $0x8,%esp
   10091:	cf                   	iret   

00010092 <exception_handler_NMI>:
exception_handler NMI, 2, 0
   10092:	6a 00                	push   $0x0
   10094:	6a 02                	push   $0x2
   10096:	60                   	pusha  
   10097:	1e                   	push   %ds
   10098:	06                   	push   %es
   10099:	0f a0                	push   %fs
   1009b:	0f a8                	push   %gs
   1009d:	54                   	push   %esp
   1009e:	e8 43 26 00 00       	call   126e6 <do_handler_NMI>
   100a3:	83 c4 04             	add    $0x4,%esp
   100a6:	0f a9                	pop    %gs
   100a8:	0f a1                	pop    %fs
   100aa:	07                   	pop    %es
   100ab:	1f                   	pop    %ds
   100ac:	61                   	popa   
   100ad:	83 c4 08             	add    $0x8,%esp
   100b0:	cf                   	iret   

000100b1 <exception_handler_breakpoint>:
exception_handler breakpoint, 3, 0
   100b1:	6a 00                	push   $0x0
   100b3:	6a 03                	push   $0x3
   100b5:	60                   	pusha  
   100b6:	1e                   	push   %ds
   100b7:	06                   	push   %es
   100b8:	0f a0                	push   %fs
   100ba:	0f a8                	push   %gs
   100bc:	54                   	push   %esp
   100bd:	e8 40 26 00 00       	call   12702 <do_handler_breakpoint>
   100c2:	83 c4 04             	add    $0x4,%esp
   100c5:	0f a9                	pop    %gs
   100c7:	0f a1                	pop    %fs
   100c9:	07                   	pop    %es
   100ca:	1f                   	pop    %ds
   100cb:	61                   	popa   
   100cc:	83 c4 08             	add    $0x8,%esp
   100cf:	cf                   	iret   

000100d0 <exception_handler_overflow>:
exception_handler overflow, 4, 0
   100d0:	6a 00                	push   $0x0
   100d2:	6a 04                	push   $0x4
   100d4:	60                   	pusha  
   100d5:	1e                   	push   %ds
   100d6:	06                   	push   %es
   100d7:	0f a0                	push   %fs
   100d9:	0f a8                	push   %gs
   100db:	54                   	push   %esp
   100dc:	e8 3d 26 00 00       	call   1271e <do_handler_overflow>
   100e1:	83 c4 04             	add    $0x4,%esp
   100e4:	0f a9                	pop    %gs
   100e6:	0f a1                	pop    %fs
   100e8:	07                   	pop    %es
   100e9:	1f                   	pop    %ds
   100ea:	61                   	popa   
   100eb:	83 c4 08             	add    $0x8,%esp
   100ee:	cf                   	iret   

000100ef <exception_handler_bound_range>:
exception_handler bound_range, 5, 0
   100ef:	6a 00                	push   $0x0
   100f1:	6a 05                	push   $0x5
   100f3:	60                   	pusha  
   100f4:	1e                   	push   %ds
   100f5:	06                   	push   %es
   100f6:	0f a0                	push   %fs
   100f8:	0f a8                	push   %gs
   100fa:	54                   	push   %esp
   100fb:	e8 3a 26 00 00       	call   1273a <do_handler_bound_range>
   10100:	83 c4 04             	add    $0x4,%esp
   10103:	0f a9                	pop    %gs
   10105:	0f a1                	pop    %fs
   10107:	07                   	pop    %es
   10108:	1f                   	pop    %ds
   10109:	61                   	popa   
   1010a:	83 c4 08             	add    $0x8,%esp
   1010d:	cf                   	iret   

0001010e <exception_handler_invalid_opcode>:
exception_handler invalid_opcode, 6, 0
   1010e:	6a 00                	push   $0x0
   10110:	6a 06                	push   $0x6
   10112:	60                   	pusha  
   10113:	1e                   	push   %ds
   10114:	06                   	push   %es
   10115:	0f a0                	push   %fs
   10117:	0f a8                	push   %gs
   10119:	54                   	push   %esp
   1011a:	e8 37 26 00 00       	call   12756 <do_handler_invalid_opcode>
   1011f:	83 c4 04             	add    $0x4,%esp
   10122:	0f a9                	pop    %gs
   10124:	0f a1                	pop    %fs
   10126:	07                   	pop    %es
   10127:	1f                   	pop    %ds
   10128:	61                   	popa   
   10129:	83 c4 08             	add    $0x8,%esp
   1012c:	cf                   	iret   

0001012d <exception_handler_device_unavailable>:
exception_handler device_unavailable, 7, 0
   1012d:	6a 00                	push   $0x0
   1012f:	6a 07                	push   $0x7
   10131:	60                   	pusha  
   10132:	1e                   	push   %ds
   10133:	06                   	push   %es
   10134:	0f a0                	push   %fs
   10136:	0f a8                	push   %gs
   10138:	54                   	push   %esp
   10139:	e8 34 26 00 00       	call   12772 <do_handler_device_unavailable>
   1013e:	83 c4 04             	add    $0x4,%esp
   10141:	0f a9                	pop    %gs
   10143:	0f a1                	pop    %fs
   10145:	07                   	pop    %es
   10146:	1f                   	pop    %ds
   10147:	61                   	popa   
   10148:	83 c4 08             	add    $0x8,%esp
   1014b:	cf                   	iret   

0001014c <exception_handler_double_fault>:
exception_handler double_fault, 8, 1
   1014c:	6a 08                	push   $0x8
   1014e:	60                   	pusha  
   1014f:	1e                   	push   %ds
   10150:	06                   	push   %es
   10151:	0f a0                	push   %fs
   10153:	0f a8                	push   %gs
   10155:	54                   	push   %esp
   10156:	e8 33 26 00 00       	call   1278e <do_handler_double_fault>
   1015b:	83 c4 04             	add    $0x4,%esp
   1015e:	0f a9                	pop    %gs
   10160:	0f a1                	pop    %fs
   10162:	07                   	pop    %es
   10163:	1f                   	pop    %ds
   10164:	61                   	popa   
   10165:	83 c4 08             	add    $0x8,%esp
   10168:	cf                   	iret   

00010169 <exception_handler_invalid_tss>:
exception_handler invalid_tss, 10, 1
   10169:	6a 0a                	push   $0xa
   1016b:	60                   	pusha  
   1016c:	1e                   	push   %ds
   1016d:	06                   	push   %es
   1016e:	0f a0                	push   %fs
   10170:	0f a8                	push   %gs
   10172:	54                   	push   %esp
   10173:	e8 32 26 00 00       	call   127aa <do_handler_invalid_tss>
   10178:	83 c4 04             	add    $0x4,%esp
   1017b:	0f a9                	pop    %gs
   1017d:	0f a1                	pop    %fs
   1017f:	07                   	pop    %es
   10180:	1f                   	pop    %ds
   10181:	61                   	popa   
   10182:	83 c4 08             	add    $0x8,%esp
   10185:	cf                   	iret   

00010186 <exception_handler_segment_not_present>:
exception_handler segment_not_present, 11, 1
   10186:	6a 0b                	push   $0xb
   10188:	60                   	pusha  
   10189:	1e                   	push   %ds
   1018a:	06                   	push   %es
   1018b:	0f a0                	push   %fs
   1018d:	0f a8                	push   %gs
   1018f:	54                   	push   %esp
   10190:	e8 31 26 00 00       	call   127c6 <do_handler_segment_not_present>
   10195:	83 c4 04             	add    $0x4,%esp
   10198:	0f a9                	pop    %gs
   1019a:	0f a1                	pop    %fs
   1019c:	07                   	pop    %es
   1019d:	1f                   	pop    %ds
   1019e:	61                   	popa   
   1019f:	83 c4 08             	add    $0x8,%esp
   101a2:	cf                   	iret   

000101a3 <exception_handler_stack_segment_fault>:
exception_handler stack_segment_fault, 12, 1
   101a3:	6a 0c                	push   $0xc
   101a5:	60                   	pusha  
   101a6:	1e                   	push   %ds
   101a7:	06                   	push   %es
   101a8:	0f a0                	push   %fs
   101aa:	0f a8                	push   %gs
   101ac:	54                   	push   %esp
   101ad:	e8 30 26 00 00       	call   127e2 <do_handler_stack_segment_fault>
   101b2:	83 c4 04             	add    $0x4,%esp
   101b5:	0f a9                	pop    %gs
   101b7:	0f a1                	pop    %fs
   101b9:	07                   	pop    %es
   101ba:	1f                   	pop    %ds
   101bb:	61                   	popa   
   101bc:	83 c4 08             	add    $0x8,%esp
   101bf:	cf                   	iret   

000101c0 <exception_handler_general_protection>:
exception_handler general_protection, 13, 1
   101c0:	6a 0d                	push   $0xd
   101c2:	60                   	pusha  
   101c3:	1e                   	push   %ds
   101c4:	06                   	push   %es
   101c5:	0f a0                	push   %fs
   101c7:	0f a8                	push   %gs
   101c9:	54                   	push   %esp
   101ca:	e8 bb 26 00 00       	call   1288a <do_handler_general_protection>
   101cf:	83 c4 04             	add    $0x4,%esp
   101d2:	0f a9                	pop    %gs
   101d4:	0f a1                	pop    %fs
   101d6:	07                   	pop    %es
   101d7:	1f                   	pop    %ds
   101d8:	61                   	popa   
   101d9:	83 c4 08             	add    $0x8,%esp
   101dc:	cf                   	iret   

000101dd <exception_handler_page_fault>:
exception_handler page_fault, 14, 1
   101dd:	6a 0e                	push   $0xe
   101df:	60                   	pusha  
   101e0:	1e                   	push   %ds
   101e1:	06                   	push   %es
   101e2:	0f a0                	push   %fs
   101e4:	0f a8                	push   %gs
   101e6:	54                   	push   %esp
   101e7:	e8 53 27 00 00       	call   1293f <do_handler_page_fault>
   101ec:	83 c4 04             	add    $0x4,%esp
   101ef:	0f a9                	pop    %gs
   101f1:	0f a1                	pop    %fs
   101f3:	07                   	pop    %es
   101f4:	1f                   	pop    %ds
   101f5:	61                   	popa   
   101f6:	83 c4 08             	add    $0x8,%esp
   101f9:	cf                   	iret   

000101fa <exception_handler_fpu_error>:
exception_handler fpu_error, 16, 0
   101fa:	6a 00                	push   $0x0
   101fc:	6a 10                	push   $0x10
   101fe:	60                   	pusha  
   101ff:	1e                   	push   %ds
   10200:	06                   	push   %es
   10201:	0f a0                	push   %fs
   10203:	0f a8                	push   %gs
   10205:	54                   	push   %esp
   10206:	e8 f3 25 00 00       	call   127fe <do_handler_fpu_error>
   1020b:	83 c4 04             	add    $0x4,%esp
   1020e:	0f a9                	pop    %gs
   10210:	0f a1                	pop    %fs
   10212:	07                   	pop    %es
   10213:	1f                   	pop    %ds
   10214:	61                   	popa   
   10215:	83 c4 08             	add    $0x8,%esp
   10218:	cf                   	iret   

00010219 <exception_handler_alignment_check>:
exception_handler alignment_check, 17, 1
   10219:	6a 11                	push   $0x11
   1021b:	60                   	pusha  
   1021c:	1e                   	push   %ds
   1021d:	06                   	push   %es
   1021e:	0f a0                	push   %fs
   10220:	0f a8                	push   %gs
   10222:	54                   	push   %esp
   10223:	e8 f2 25 00 00       	call   1281a <do_handler_alignment_check>
   10228:	83 c4 04             	add    $0x4,%esp
   1022b:	0f a9                	pop    %gs
   1022d:	0f a1                	pop    %fs
   1022f:	07                   	pop    %es
   10230:	1f                   	pop    %ds
   10231:	61                   	popa   
   10232:	83 c4 08             	add    $0x8,%esp
   10235:	cf                   	iret   

00010236 <exception_handler_machine_check>:
exception_handler machine_check, 18, 0
   10236:	6a 00                	push   $0x0
   10238:	6a 12                	push   $0x12
   1023a:	60                   	pusha  
   1023b:	1e                   	push   %ds
   1023c:	06                   	push   %es
   1023d:	0f a0                	push   %fs
   1023f:	0f a8                	push   %gs
   10241:	54                   	push   %esp
   10242:	e8 ef 25 00 00       	call   12836 <do_handler_machine_check>
   10247:	83 c4 04             	add    $0x4,%esp
   1024a:	0f a9                	pop    %gs
   1024c:	0f a1                	pop    %fs
   1024e:	07                   	pop    %es
   1024f:	1f                   	pop    %ds
   10250:	61                   	popa   
   10251:	83 c4 08             	add    $0x8,%esp
   10254:	cf                   	iret   

00010255 <exception_handler_smd_exception>:
exception_handler smd_exception, 19, 0
   10255:	6a 00                	push   $0x0
   10257:	6a 13                	push   $0x13
   10259:	60                   	pusha  
   1025a:	1e                   	push   %ds
   1025b:	06                   	push   %es
   1025c:	0f a0                	push   %fs
   1025e:	0f a8                	push   %gs
   10260:	54                   	push   %esp
   10261:	e8 ec 25 00 00       	call   12852 <do_handler_smd_exception>
   10266:	83 c4 04             	add    $0x4,%esp
   10269:	0f a9                	pop    %gs
   1026b:	0f a1                	pop    %fs
   1026d:	07                   	pop    %es
   1026e:	1f                   	pop    %ds
   1026f:	61                   	popa   
   10270:	83 c4 08             	add    $0x8,%esp
   10273:	cf                   	iret   

00010274 <exception_handler_virtual_exception>:
exception_handler virtual_exception, 20, 0
   10274:	6a 00                	push   $0x0
   10276:	6a 14                	push   $0x14
   10278:	60                   	pusha  
   10279:	1e                   	push   %ds
   1027a:	06                   	push   %es
   1027b:	0f a0                	push   %fs
   1027d:	0f a8                	push   %gs
   1027f:	54                   	push   %esp
   10280:	e8 e9 25 00 00       	call   1286e <do_handler_virtual_exception>
   10285:	83 c4 04             	add    $0x4,%esp
   10288:	0f a9                	pop    %gs
   1028a:	0f a1                	pop    %fs
   1028c:	07                   	pop    %es
   1028d:	1f                   	pop    %ds
   1028e:	61                   	popa   
   1028f:	83 c4 08             	add    $0x8,%esp
   10292:	cf                   	iret   

00010293 <exception_handler_timer>:

# 硬件中断
exception_handler timer, 0x20, 0
   10293:	6a 00                	push   $0x0
   10295:	6a 20                	push   $0x20
   10297:	60                   	pusha  
   10298:	1e                   	push   %ds
   10299:	06                   	push   %es
   1029a:	0f a0                	push   %fs
   1029c:	0f a8                	push   %gs
   1029e:	54                   	push   %esp
   1029f:	e8 06 41 00 00       	call   143aa <do_handler_timer>
   102a4:	83 c4 04             	add    $0x4,%esp
   102a7:	0f a9                	pop    %gs
   102a9:	0f a1                	pop    %fs
   102ab:	07                   	pop    %es
   102ac:	1f                   	pop    %ds
   102ad:	61                   	popa   
   102ae:	83 c4 08             	add    $0x8,%esp
   102b1:	cf                   	iret   

000102b2 <exception_handler_kbd>:
exception_handler kbd, 0x21, 0
   102b2:	6a 00                	push   $0x0
   102b4:	6a 21                	push   $0x21
   102b6:	60                   	pusha  
   102b7:	1e                   	push   %ds
   102b8:	06                   	push   %es
   102b9:	0f a0                	push   %fs
   102bb:	0f a8                	push   %gs
   102bd:	54                   	push   %esp
   102be:	e8 66 3f 00 00       	call   14229 <do_handler_kbd>
   102c3:	83 c4 04             	add    $0x4,%esp
   102c6:	0f a9                	pop    %gs
   102c8:	0f a1                	pop    %fs
   102ca:	07                   	pop    %es
   102cb:	1f                   	pop    %ds
   102cc:	61                   	popa   
   102cd:	83 c4 08             	add    $0x8,%esp
   102d0:	cf                   	iret   

000102d1 <simple_switch>:
// esp不用保存，只需要让esp保存在调用之前的状态
// eflags ?
    .text
    .global simple_switch
simple_switch:
    movl 4(%esp), %eax   // 取from->stack
   102d1:	8b 44 24 04          	mov    0x4(%esp),%eax
	movl 8(%esp), %edx   // 取to->stack
   102d5:	8b 54 24 08          	mov    0x8(%esp),%edx

	// 保存前一任务的状态
	push %ebp
   102d9:	55                   	push   %ebp
	push %ebx
   102da:	53                   	push   %ebx
	push %esi
   102db:	56                   	push   %esi
	push %edi
   102dc:	57                   	push   %edi

	// 切换栈
	mov %esp, (%eax)    // from->stack = esp
   102dd:	89 20                	mov    %esp,(%eax)
  	mov %edx, %esp      // esp = to->stack
   102df:	89 d4                	mov    %edx,%esp

	// 加载下一任务的栈
	pop %edi
   102e1:	5f                   	pop    %edi
	pop %esi
   102e2:	5e                   	pop    %esi
	pop %ebx
   102e3:	5b                   	pop    %ebx
	pop %ebp
   102e4:	5d                   	pop    %ebp
  	ret
   102e5:	c3                   	ret    

000102e6 <exception_handler_syscall>:

    .global exception_handler_syscall
    .extern do_handler_syscall
exception_handler_syscall:
    # 保存前一任务的状态
	pusha
   102e6:	60                   	pusha  
	push %ds
   102e7:	1e                   	push   %ds
	push %es
   102e8:	06                   	push   %es
	push %fs
   102e9:	0f a0                	push   %fs
	push %gs
   102eb:	0f a8                	push   %gs
	pushf
   102ed:	9c                   	pushf  

    # 使用内核段寄存器，避免使用应用层的
	mov $(KERNEL_SELECTOR_DS), %eax
   102ee:	b8 10 00 00 00       	mov    $0x10,%eax
	mov %eax, %ds
   102f3:	8e d8                	mov    %eax,%ds
	mov %eax, %es
   102f5:	8e c0                	mov    %eax,%es
	mov %eax, %fs
   102f7:	8e e0                	mov    %eax,%fs
	mov %eax, %gs
   102f9:	8e e8                	mov    %eax,%gs

    # 调用处理函数
    mov %esp, %eax
   102fb:	89 e0                	mov    %esp,%eax
    push %eax
   102fd:	50                   	push   %eax
	call do_handler_syscall
   102fe:	e8 fd 0b 00 00       	call   10f00 <do_handler_syscall>
	add $4, %esp
   10303:	83 c4 04             	add    $0x4,%esp

    # 再切换回来
	popf
   10306:	9d                   	popf   
	pop %gs
   10307:	0f a9                	pop    %gs
	pop %fs
   10309:	0f a1                	pop    %fs
	pop %es
   1030b:	07                   	pop    %es
	pop %ds
   1030c:	1f                   	pop    %ds
	popa
   1030d:	61                   	popa   
   1030e:	ca 14 00             	lret   $0x14

00010311 <up2>:
#include "comm/types.h"
#include <stdarg.h>

// 向上对齐到页边界
static inline uint32_t up2(uint32_t size, uint32_t bound)
{
   10311:	55                   	push   %ebp
   10312:	89 e5                	mov    %esp,%ebp
    return (size + bound - 1) & ~(bound - 1);
   10314:	8b 55 08             	mov    0x8(%ebp),%edx
   10317:	8b 45 0c             	mov    0xc(%ebp),%eax
   1031a:	01 d0                	add    %edx,%eax
   1031c:	8d 50 ff             	lea    -0x1(%eax),%edx
   1031f:	8b 45 0c             	mov    0xc(%ebp),%eax
   10322:	f7 d8                	neg    %eax
   10324:	21 d0                	and    %edx,%eax
}
   10326:	5d                   	pop    %ebp
   10327:	c3                   	ret    

00010328 <down2>:
// size = 0x1010 bound = 0x1000
// bound - 1 = 0x0FFF
// ~(bound-1) = 0xFFFF1000
// size & ~(bound-1) =  0x1010 & 0xFFFF1000 = 0x1000
static inline uint32_t down2(uint32_t size, uint32_t bound)
{
   10328:	55                   	push   %ebp
   10329:	89 e5                	mov    %esp,%ebp
    return size & ~(bound - 1);
   1032b:	8b 45 0c             	mov    0xc(%ebp),%eax
   1032e:	f7 d8                	neg    %eax
   10330:	23 45 08             	and    0x8(%ebp),%eax
}
   10333:	5d                   	pop    %ebp
   10334:	c3                   	ret    

00010335 <write_cr3>:
    __asm__ __volatile__("mov %%cr3, %[v]" : [v] "=r"(cr3));
    return cr3;
}

static inline void write_cr3(uint32_t v)
{
   10335:	55                   	push   %ebp
   10336:	89 e5                	mov    %esp,%ebp
    __asm__ __volatile__("mov %[v], %%cr3" ::[v] "r"(v));
   10338:	8b 45 08             	mov    0x8(%ebp),%eax
   1033b:	0f 22 d8             	mov    %eax,%cr3
}
   1033e:	90                   	nop
   1033f:	5d                   	pop    %ebp
   10340:	c3                   	ret    

00010341 <pde_index>:

/**
 * @brief 返回vaddr在页目录中的索引
 */
static inline uint32_t pde_index(uint32_t vaddr)
{
   10341:	55                   	push   %ebp
   10342:	89 e5                	mov    %esp,%ebp
   10344:	83 ec 10             	sub    $0x10,%esp
    int index = (vaddr >> 22); // 只取高10位
   10347:	8b 45 08             	mov    0x8(%ebp),%eax
   1034a:	c1 e8 16             	shr    $0x16,%eax
   1034d:	89 45 fc             	mov    %eax,-0x4(%ebp)
    return index;
   10350:	8b 45 fc             	mov    -0x4(%ebp),%eax
}
   10353:	c9                   	leave  
   10354:	c3                   	ret    

00010355 <pde_paddr>:

/**
 * @brief 获取pde中地址
 */
static inline uint32_t pde_paddr(pde_t *pde)
{
   10355:	55                   	push   %ebp
   10356:	89 e5                	mov    %esp,%ebp
    return pde->phy_pt_addr << 12;
   10358:	8b 45 08             	mov    0x8(%ebp),%eax
   1035b:	0f b6 50 01          	movzbl 0x1(%eax),%edx
   1035f:	c0 ea 04             	shr    $0x4,%dl
   10362:	0f b6 d2             	movzbl %dl,%edx
   10365:	0f b6 48 02          	movzbl 0x2(%eax),%ecx
   10369:	c1 e1 04             	shl    $0x4,%ecx
   1036c:	09 ca                	or     %ecx,%edx
   1036e:	0f b6 40 03          	movzbl 0x3(%eax),%eax
   10372:	c1 e0 0c             	shl    $0xc,%eax
   10375:	09 d0                	or     %edx,%eax
   10377:	c1 e0 0c             	shl    $0xc,%eax
}
   1037a:	5d                   	pop    %ebp
   1037b:	c3                   	ret    

0001037c <pte_index>:

/**
 * @brief 返回vaddr在页表中的索引
 */
static inline int pte_index(uint32_t vaddr)
{
   1037c:	55                   	push   %ebp
   1037d:	89 e5                	mov    %esp,%ebp
    return (vaddr >> 12) & 0x3FF; // 取中间10位
   1037f:	8b 45 08             	mov    0x8(%ebp),%eax
   10382:	c1 e8 0c             	shr    $0xc,%eax
   10385:	25 ff 03 00 00       	and    $0x3ff,%eax
}
   1038a:	5d                   	pop    %ebp
   1038b:	c3                   	ret    

0001038c <pte_paddr>:

/**
 * @brief 获取pte中的物理地址
 */
static inline uint32_t pte_paddr(pte_t *pte)
{
   1038c:	55                   	push   %ebp
   1038d:	89 e5                	mov    %esp,%ebp
    return pte->phy_page_addr << 12;
   1038f:	8b 45 08             	mov    0x8(%ebp),%eax
   10392:	0f b6 50 01          	movzbl 0x1(%eax),%edx
   10396:	c0 ea 04             	shr    $0x4,%dl
   10399:	0f b6 d2             	movzbl %dl,%edx
   1039c:	0f b6 48 02          	movzbl 0x2(%eax),%ecx
   103a0:	c1 e1 04             	shl    $0x4,%ecx
   103a3:	09 ca                	or     %ecx,%edx
   103a5:	0f b6 40 03          	movzbl 0x3(%eax),%eax
   103a9:	c1 e0 0c             	shl    $0xc,%eax
   103ac:	09 d0                	or     %edx,%eax
   103ae:	c1 e0 0c             	shl    $0xc,%eax
}
   103b1:	5d                   	pop    %ebp
   103b2:	c3                   	ret    

000103b3 <get_pte_perm>:

/**
 * @brief 获取pte中的权限位
 */
static inline uint32_t get_pte_perm(pte_t *pte)
{
   103b3:	55                   	push   %ebp
   103b4:	89 e5                	mov    %esp,%ebp
    return (pte->v & 0x1FF);
   103b6:	8b 45 08             	mov    0x8(%ebp),%eax
   103b9:	8b 00                	mov    (%eax),%eax
   103bb:	25 ff 01 00 00       	and    $0x1ff,%eax
}
   103c0:	5d                   	pop    %ebp
   103c1:	c3                   	ret    

000103c2 <mmu_set_page_dir>:
/**
 * @brief 重新加载整个页表至cr3高20位寄存器
 * @param vaddr 页表的虚拟地址
 */
static inline void mmu_set_page_dir(uint32_t paddr)
{
   103c2:	55                   	push   %ebp
   103c3:	89 e5                	mov    %esp,%ebp
    // 将虚拟地址转换为物理地址
    write_cr3(paddr);
   103c5:	ff 75 08             	pushl  0x8(%ebp)
   103c8:	e8 68 ff ff ff       	call   10335 <write_cr3>
   103cd:	83 c4 04             	add    $0x4,%esp
}
   103d0:	90                   	nop
   103d1:	c9                   	leave  
   103d2:	c3                   	ret    

000103d3 <current_page_dir>:

/**
 * @brief 获取当前页表地址
 */
static pde_t *current_page_dir(void)
{
   103d3:	55                   	push   %ebp
   103d4:	89 e5                	mov    %esp,%ebp
   103d6:	83 ec 08             	sub    $0x8,%esp
    return (pde_t *)task_current()->tss.cr3;
   103d9:	e8 a3 11 00 00       	call   11581 <task_current>
   103de:	8b 80 74 02 00 00    	mov    0x274(%eax),%eax
}
   103e4:	c9                   	leave  
   103e5:	c3                   	ret    

000103e6 <addr_alloc_init>:
 * @brief 初始化地址分配结构
 * 以下不检查start和size的页边界，由上层调用者检查
 */
static void addr_alloc_init(addr_alloc_t *alloc, uint8_t *bits,
                            uint32_t start, uint32_t size, uint32_t page_size)
{
   103e6:	55                   	push   %ebp
   103e7:	89 e5                	mov    %esp,%ebp
   103e9:	83 ec 08             	sub    $0x8,%esp
    mutex_init(&alloc->mutex);
   103ec:	8b 45 08             	mov    0x8(%ebp),%eax
   103ef:	83 ec 0c             	sub    $0xc,%esp
   103f2:	50                   	push   %eax
   103f3:	e8 07 4d 00 00       	call   150ff <mutex_init>
   103f8:	83 c4 10             	add    $0x10,%esp
    alloc->start = start;
   103fb:	8b 45 08             	mov    0x8(%ebp),%eax
   103fe:	8b 55 10             	mov    0x10(%ebp),%edx
   10401:	89 50 20             	mov    %edx,0x20(%eax)
    alloc->size = size;
   10404:	8b 45 08             	mov    0x8(%ebp),%eax
   10407:	8b 55 14             	mov    0x14(%ebp),%edx
   1040a:	89 50 24             	mov    %edx,0x24(%eax)
    alloc->page_size = page_size;
   1040d:	8b 45 08             	mov    0x8(%ebp),%eax
   10410:	8b 55 18             	mov    0x18(%ebp),%edx
   10413:	89 50 1c             	mov    %edx,0x1c(%eax)
    bitmap_init(&alloc->bitmap, bits, alloc->size / page_size, 0);
   10416:	8b 45 08             	mov    0x8(%ebp),%eax
   10419:	8b 40 24             	mov    0x24(%eax),%eax
   1041c:	ba 00 00 00 00       	mov    $0x0,%edx
   10421:	f7 75 18             	divl   0x18(%ebp)
   10424:	89 c2                	mov    %eax,%edx
   10426:	8b 45 08             	mov    0x8(%ebp),%eax
   10429:	83 c0 14             	add    $0x14,%eax
   1042c:	6a 00                	push   $0x0
   1042e:	52                   	push   %edx
   1042f:	ff 75 0c             	pushl  0xc(%ebp)
   10432:	50                   	push   %eax
   10433:	e8 a0 4f 00 00       	call   153d8 <bitmap_init>
   10438:	83 c4 10             	add    $0x10,%esp
}
   1043b:	90                   	nop
   1043c:	c9                   	leave  
   1043d:	c3                   	ret    

0001043e <addr_alloc_page>:

/**
 * @brief 分配多页内存
 */
static uint32_t addr_alloc_page(addr_alloc_t *alloc, int page_count)
{
   1043e:	55                   	push   %ebp
   1043f:	89 e5                	mov    %esp,%ebp
   10441:	83 ec 18             	sub    $0x18,%esp
    uint32_t addr = 0;
   10444:	c7 45 f4 00 00 00 00 	movl   $0x0,-0xc(%ebp)

    mutex_lock(&alloc->mutex);
   1044b:	8b 45 08             	mov    0x8(%ebp),%eax
   1044e:	83 ec 0c             	sub    $0xc,%esp
   10451:	50                   	push   %eax
   10452:	e8 d6 4c 00 00       	call   1512d <mutex_lock>
   10457:	83 c4 10             	add    $0x10,%esp

    int page_index = bitmap_alloc_nbits(&alloc->bitmap, 0, page_count);
   1045a:	8b 45 08             	mov    0x8(%ebp),%eax
   1045d:	83 c0 14             	add    $0x14,%eax
   10460:	83 ec 04             	sub    $0x4,%esp
   10463:	ff 75 0c             	pushl  0xc(%ebp)
   10466:	6a 00                	push   $0x0
   10468:	50                   	push   %eax
   10469:	e8 e6 50 00 00       	call   15554 <bitmap_alloc_nbits>
   1046e:	83 c4 10             	add    $0x10,%esp
   10471:	89 45 f0             	mov    %eax,-0x10(%ebp)
    if (page_index >= 0)
   10474:	83 7d f0 00          	cmpl   $0x0,-0x10(%ebp)
   10478:	78 17                	js     10491 <addr_alloc_page+0x53>
    {
        addr = alloc->start + page_index * alloc->page_size;
   1047a:	8b 45 08             	mov    0x8(%ebp),%eax
   1047d:	8b 50 20             	mov    0x20(%eax),%edx
   10480:	8b 45 08             	mov    0x8(%ebp),%eax
   10483:	8b 48 1c             	mov    0x1c(%eax),%ecx
   10486:	8b 45 f0             	mov    -0x10(%ebp),%eax
   10489:	0f af c1             	imul   %ecx,%eax
   1048c:	01 d0                	add    %edx,%eax
   1048e:	89 45 f4             	mov    %eax,-0xc(%ebp)
    }

    mutex_unlock(&alloc->mutex);
   10491:	8b 45 08             	mov    0x8(%ebp),%eax
   10494:	83 ec 0c             	sub    $0xc,%esp
   10497:	50                   	push   %eax
   10498:	e8 24 4d 00 00       	call   151c1 <mutex_unlock>
   1049d:	83 c4 10             	add    $0x10,%esp
    return addr;
   104a0:	8b 45 f4             	mov    -0xc(%ebp),%eax
}
   104a3:	c9                   	leave  
   104a4:	c3                   	ret    

000104a5 <addr_free_page>:

/**
 * @brief 释放多页内存
 */
static void addr_free_page(addr_alloc_t *alloc, uint32_t addr, int page_count)
{
   104a5:	55                   	push   %ebp
   104a6:	89 e5                	mov    %esp,%ebp
   104a8:	53                   	push   %ebx
   104a9:	83 ec 14             	sub    $0x14,%esp
    mutex_lock(&alloc->mutex);
   104ac:	8b 45 08             	mov    0x8(%ebp),%eax
   104af:	83 ec 0c             	sub    $0xc,%esp
   104b2:	50                   	push   %eax
   104b3:	e8 75 4c 00 00       	call   1512d <mutex_lock>
   104b8:	83 c4 10             	add    $0x10,%esp

    uint32_t pg_idx = (addr - alloc->start) / alloc->page_size;
   104bb:	8b 45 08             	mov    0x8(%ebp),%eax
   104be:	8b 40 20             	mov    0x20(%eax),%eax
   104c1:	8b 55 0c             	mov    0xc(%ebp),%edx
   104c4:	89 d1                	mov    %edx,%ecx
   104c6:	29 c1                	sub    %eax,%ecx
   104c8:	8b 45 08             	mov    0x8(%ebp),%eax
   104cb:	8b 58 1c             	mov    0x1c(%eax),%ebx
   104ce:	89 c8                	mov    %ecx,%eax
   104d0:	ba 00 00 00 00       	mov    $0x0,%edx
   104d5:	f7 f3                	div    %ebx
   104d7:	89 45 f4             	mov    %eax,-0xc(%ebp)
    bitmap_set_bit(&alloc->bitmap, pg_idx, page_count, 0);
   104da:	8b 45 f4             	mov    -0xc(%ebp),%eax
   104dd:	8b 55 08             	mov    0x8(%ebp),%edx
   104e0:	83 c2 14             	add    $0x14,%edx
   104e3:	6a 00                	push   $0x0
   104e5:	ff 75 10             	pushl  0x10(%ebp)
   104e8:	50                   	push   %eax
   104e9:	52                   	push   %edx
   104ea:	e8 3c 4f 00 00       	call   1542b <bitmap_set_bit>
   104ef:	83 c4 10             	add    $0x10,%esp

    mutex_unlock(&alloc->mutex);
   104f2:	8b 45 08             	mov    0x8(%ebp),%eax
   104f5:	83 ec 0c             	sub    $0xc,%esp
   104f8:	50                   	push   %eax
   104f9:	e8 c3 4c 00 00       	call   151c1 <mutex_unlock>
   104fe:	83 c4 10             	add    $0x10,%esp
}
   10501:	90                   	nop
   10502:	8b 5d fc             	mov    -0x4(%ebp),%ebx
   10505:	c9                   	leave  
   10506:	c3                   	ret    

00010507 <show_mem_info>:

static void show_mem_info(boot_info_t *boot_info)
{
   10507:	55                   	push   %ebp
   10508:	89 e5                	mov    %esp,%ebp
   1050a:	83 ec 18             	sub    $0x18,%esp
    log_printf("mem region:");
   1050d:	83 ec 0c             	sub    $0xc,%esp
   10510:	68 80 5e 01 00       	push   $0x15e80
   10515:	e8 ac 58 00 00       	call   15dc6 <log_printf>
   1051a:	83 c4 10             	add    $0x10,%esp
    for (int i = 0; i < boot_info->ram_region_count; i++)
   1051d:	c7 45 f4 00 00 00 00 	movl   $0x0,-0xc(%ebp)
   10524:	eb 29                	jmp    1054f <show_mem_info+0x48>
    {
        log_printf("[%d]: 0x%x - 0x%x", i,
   10526:	8b 45 08             	mov    0x8(%ebp),%eax
   10529:	8b 55 f4             	mov    -0xc(%ebp),%edx
   1052c:	8b 54 d0 04          	mov    0x4(%eax,%edx,8),%edx
   10530:	8b 45 08             	mov    0x8(%ebp),%eax
   10533:	8b 4d f4             	mov    -0xc(%ebp),%ecx
   10536:	8b 04 c8             	mov    (%eax,%ecx,8),%eax
   10539:	52                   	push   %edx
   1053a:	50                   	push   %eax
   1053b:	ff 75 f4             	pushl  -0xc(%ebp)
   1053e:	68 8c 5e 01 00       	push   $0x15e8c
   10543:	e8 7e 58 00 00       	call   15dc6 <log_printf>
   10548:	83 c4 10             	add    $0x10,%esp
    for (int i = 0; i < boot_info->ram_region_count; i++)
   1054b:	83 45 f4 01          	addl   $0x1,-0xc(%ebp)
   1054f:	8b 45 08             	mov    0x8(%ebp),%eax
   10552:	8b 40 50             	mov    0x50(%eax),%eax
   10555:	39 45 f4             	cmp    %eax,-0xc(%ebp)
   10558:	7c cc                	jl     10526 <show_mem_info+0x1f>
                   boot_info->ram_region_cfg[i].start,
                   boot_info->ram_region_cfg[i].size);
    }
    log_printf("\n");
   1055a:	83 ec 0c             	sub    $0xc,%esp
   1055d:	68 9e 5e 01 00       	push   $0x15e9e
   10562:	e8 5f 58 00 00       	call   15dc6 <log_printf>
   10567:	83 c4 10             	add    $0x10,%esp
}
   1056a:	90                   	nop
   1056b:	c9                   	leave  
   1056c:	c3                   	ret    

0001056d <total_mem_size>:

/**
 * @brief 获取可用的物理内存大小
 */
static uint32_t total_mem_size(boot_info_t *boot_info)
{
   1056d:	55                   	push   %ebp
   1056e:	89 e5                	mov    %esp,%ebp
   10570:	83 ec 10             	sub    $0x10,%esp
    int mem_size = 0;
   10573:	c7 45 fc 00 00 00 00 	movl   $0x0,-0x4(%ebp)

    // 简单起见，暂不考虑中间有空洞的情况
    for (int i = 0; i < boot_info->ram_region_count; i++)
   1057a:	c7 45 f8 00 00 00 00 	movl   $0x0,-0x8(%ebp)
   10581:	eb 16                	jmp    10599 <total_mem_size+0x2c>
    {
        mem_size += boot_info->ram_region_cfg[i].size;
   10583:	8b 45 08             	mov    0x8(%ebp),%eax
   10586:	8b 55 f8             	mov    -0x8(%ebp),%edx
   10589:	8b 54 d0 04          	mov    0x4(%eax,%edx,8),%edx
   1058d:	8b 45 fc             	mov    -0x4(%ebp),%eax
   10590:	01 d0                	add    %edx,%eax
   10592:	89 45 fc             	mov    %eax,-0x4(%ebp)
    for (int i = 0; i < boot_info->ram_region_count; i++)
   10595:	83 45 f8 01          	addl   $0x1,-0x8(%ebp)
   10599:	8b 45 08             	mov    0x8(%ebp),%eax
   1059c:	8b 40 50             	mov    0x50(%eax),%eax
   1059f:	39 45 f8             	cmp    %eax,-0x8(%ebp)
   105a2:	7c df                	jl     10583 <total_mem_size+0x16>
    }
    return mem_size;
   105a4:	8b 45 fc             	mov    -0x4(%ebp),%eax
}
   105a7:	c9                   	leave  
   105a8:	c3                   	ret    

000105a9 <find_pte>:

pte_t *find_pte(pde_t *page_dir, uint32_t vaddr, int alloc)
{
   105a9:	55                   	push   %ebp
   105aa:	89 e5                	mov    %esp,%ebp
   105ac:	83 ec 18             	sub    $0x18,%esp
    pte_t *page_table;

    pde_t *pde = page_dir + pde_index(vaddr);
   105af:	ff 75 0c             	pushl  0xc(%ebp)
   105b2:	e8 8a fd ff ff       	call   10341 <pde_index>
   105b7:	83 c4 04             	add    $0x4,%esp
   105ba:	8d 14 85 00 00 00 00 	lea    0x0(,%eax,4),%edx
   105c1:	8b 45 08             	mov    0x8(%ebp),%eax
   105c4:	01 d0                	add    %edx,%eax
   105c6:	89 45 f0             	mov    %eax,-0x10(%ebp)
    if (pde->present)
   105c9:	8b 45 f0             	mov    -0x10(%ebp),%eax
   105cc:	0f b6 00             	movzbl (%eax),%eax
   105cf:	83 e0 01             	and    $0x1,%eax
   105d2:	84 c0                	test   %al,%al
   105d4:	74 10                	je     105e6 <find_pte+0x3d>
    {
        page_table = (pte_t *)pde_paddr(pde);
   105d6:	ff 75 f0             	pushl  -0x10(%ebp)
   105d9:	e8 77 fd ff ff       	call   10355 <pde_paddr>
   105de:	83 c4 04             	add    $0x4,%esp
   105e1:	89 45 f4             	mov    %eax,-0xc(%ebp)
   105e4:	eb 57                	jmp    1063d <find_pte+0x94>
    }
    else
    {
        // 如果不存在，则考虑分配一个
        if (alloc == 0)
   105e6:	83 7d 10 00          	cmpl   $0x0,0x10(%ebp)
   105ea:	75 07                	jne    105f3 <find_pte+0x4a>
        {
            return (pte_t *)0;
   105ec:	b8 00 00 00 00       	mov    $0x0,%eax
   105f1:	eb 64                	jmp    10657 <find_pte+0xae>
        }

        // 分配一个物理页表
        uint32_t pg_paddr = addr_alloc_page(&paddr_alloc, 1);
   105f3:	83 ec 08             	sub    $0x8,%esp
   105f6:	6a 01                	push   $0x1
   105f8:	68 00 a0 01 00       	push   $0x1a000
   105fd:	e8 3c fe ff ff       	call   1043e <addr_alloc_page>
   10602:	83 c4 10             	add    $0x10,%esp
   10605:	89 45 ec             	mov    %eax,-0x14(%ebp)
        if (pg_paddr == 0)
   10608:	83 7d ec 00          	cmpl   $0x0,-0x14(%ebp)
   1060c:	75 07                	jne    10615 <find_pte+0x6c>
        {
            return (pte_t *)0;
   1060e:	b8 00 00 00 00       	mov    $0x0,%eax
   10613:	eb 42                	jmp    10657 <find_pte+0xae>
        }

        // 设置为用户可读写，将被pte中设置所覆盖
        pde->v = pg_paddr | PTE_P | PTE_W | PDE_U;
   10615:	8b 45 ec             	mov    -0x14(%ebp),%eax
   10618:	83 c8 07             	or     $0x7,%eax
   1061b:	89 c2                	mov    %eax,%edx
   1061d:	8b 45 f0             	mov    -0x10(%ebp),%eax
   10620:	89 10                	mov    %edx,(%eax)
        // 为物理页表绑定虚拟地址的映射，这样下面就可以计算出虚拟地址了
        // kernel_pg_last[pde_index(vaddr)].v = pg_paddr | PTE_P | PTE_W;

        // 清空页表，防止出现异常
        // 这里虚拟地址和物理地址一一映射，所以直接写入
        page_table = (pte_t *)(pg_paddr);
   10622:	8b 45 ec             	mov    -0x14(%ebp),%eax
   10625:	89 45 f4             	mov    %eax,-0xc(%ebp)
        kernel_memset(page_table, 0, MEM_PAGE_SIZE);
   10628:	83 ec 04             	sub    $0x4,%esp
   1062b:	68 00 10 00 00       	push   $0x1000
   10630:	6a 00                	push   $0x0
   10632:	ff 75 f4             	pushl  -0xc(%ebp)
   10635:	e8 93 51 00 00       	call   157cd <kernel_memset>
   1063a:	83 c4 10             	add    $0x10,%esp
    }

    return page_table + pte_index(vaddr);
   1063d:	83 ec 0c             	sub    $0xc,%esp
   10640:	ff 75 0c             	pushl  0xc(%ebp)
   10643:	e8 34 fd ff ff       	call   1037c <pte_index>
   10648:	83 c4 10             	add    $0x10,%esp
   1064b:	8d 14 85 00 00 00 00 	lea    0x0(,%eax,4),%edx
   10652:	8b 45 f4             	mov    -0xc(%ebp),%eax
   10655:	01 d0                	add    %edx,%eax
}
   10657:	c9                   	leave  
   10658:	c3                   	ret    

00010659 <memory_create_map>:

/**
 * @brief 将指定的地址空间进行一页的映射
 */
int memory_create_map(pde_t *page_dir, uint32_t vaddr, uint32_t paddr, int count, uint32_t perm)
{
   10659:	55                   	push   %ebp
   1065a:	89 e5                	mov    %esp,%ebp
   1065c:	83 ec 18             	sub    $0x18,%esp
    for (int i = 0; i < count; i++)
   1065f:	c7 45 f4 00 00 00 00 	movl   $0x0,-0xc(%ebp)
   10666:	eb 6e                	jmp    106d6 <memory_create_map+0x7d>
    {
        // log_printf("create map: v-0x%x p-0x%x, perm: 0x%x", vaddr, paddr, perm);

        pte_t *pte = find_pte(page_dir, vaddr, 1);
   10668:	83 ec 04             	sub    $0x4,%esp
   1066b:	6a 01                	push   $0x1
   1066d:	ff 75 0c             	pushl  0xc(%ebp)
   10670:	ff 75 08             	pushl  0x8(%ebp)
   10673:	e8 31 ff ff ff       	call   105a9 <find_pte>
   10678:	83 c4 10             	add    $0x10,%esp
   1067b:	89 45 f0             	mov    %eax,-0x10(%ebp)
        if (pte == (pte_t *)0)
   1067e:	83 7d f0 00          	cmpl   $0x0,-0x10(%ebp)
   10682:	75 07                	jne    1068b <memory_create_map+0x32>
        {
            // log_printf("create pte failed. pte == 0");
            return -1;
   10684:	b8 ff ff ff ff       	mov    $0xffffffff,%eax
   10689:	eb 58                	jmp    106e3 <memory_create_map+0x8a>
        }

        // 创建映射的时候，这条pte应当是不存在的。
        // 如果存在，说明可能有问题
        // log_printf("\tpte addr: 0x%x", (uint32_t)pte);
        ASSERT(pte->present == 0);
   1068b:	8b 45 f0             	mov    -0x10(%ebp),%eax
   1068e:	0f b6 00             	movzbl (%eax),%eax
   10691:	83 e0 01             	and    $0x1,%eax
   10694:	84 c0                	test   %al,%al
   10696:	74 1c                	je     106b4 <memory_create_map+0x5b>
   10698:	68 a0 5e 01 00       	push   $0x15ea0
   1069d:	68 e8 5f 01 00       	push   $0x15fe8
   106a2:	68 97 00 00 00       	push   $0x97
   106a7:	68 b4 5e 01 00       	push   $0x15eb4
   106ac:	e8 45 54 00 00       	call   15af6 <panic>
   106b1:	83 c4 10             	add    $0x10,%esp

        pte->v = paddr | perm | PTE_P;
   106b4:	8b 45 10             	mov    0x10(%ebp),%eax
   106b7:	0b 45 18             	or     0x18(%ebp),%eax
   106ba:	83 c8 01             	or     $0x1,%eax
   106bd:	89 c2                	mov    %eax,%edx
   106bf:	8b 45 f0             	mov    -0x10(%ebp),%eax
   106c2:	89 10                	mov    %edx,(%eax)

        vaddr += MEM_PAGE_SIZE;
   106c4:	81 45 0c 00 10 00 00 	addl   $0x1000,0xc(%ebp)
        paddr += MEM_PAGE_SIZE;
   106cb:	81 45 10 00 10 00 00 	addl   $0x1000,0x10(%ebp)
    for (int i = 0; i < count; i++)
   106d2:	83 45 f4 01          	addl   $0x1,-0xc(%ebp)
   106d6:	8b 45 f4             	mov    -0xc(%ebp),%eax
   106d9:	3b 45 14             	cmp    0x14(%ebp),%eax
   106dc:	7c 8a                	jl     10668 <memory_create_map+0xf>
    }

    return 0;
   106de:	b8 00 00 00 00       	mov    $0x0,%eax
}
   106e3:	c9                   	leave  
   106e4:	c3                   	ret    

000106e5 <create_kernel_table>:

/**
 * @brief 根据内存映射表，构造内核页表
 */
void create_kernel_table(void)
{
   106e5:	55                   	push   %ebp
   106e6:	89 e5                	mov    %esp,%ebp
   106e8:	83 ec 28             	sub    $0x28,%esp
        // 1M以上空间扩展V\P一一映射，方便直接操作
        {(void *)MEM_EXT_START, (void *)MEM_EXT_END, (void *)MEM_EXT_START, PTE_W},
    };

    // 清空页目录表
    kernel_memset(kernel_page_dir, 0, sizeof(kernel_page_dir));
   106eb:	83 ec 04             	sub    $0x4,%esp
   106ee:	68 00 10 00 00       	push   $0x1000
   106f3:	6a 00                	push   $0x0
   106f5:	68 00 b0 01 00       	push   $0x1b000
   106fa:	e8 ce 50 00 00       	call   157cd <kernel_memset>
   106ff:	83 c4 10             	add    $0x10,%esp

    // 清空后，然后依次根据映射关系创建映射表
    for (int i = 0; i < sizeof(kernel_map) / sizeof(memory_map_t); i++)
   10702:	c7 45 f4 00 00 00 00 	movl   $0x0,-0xc(%ebp)
   10709:	e9 83 00 00 00       	jmp    10791 <create_kernel_table+0xac>
    {
        memory_map_t *map = kernel_map + i;
   1070e:	8b 45 f4             	mov    -0xc(%ebp),%eax
   10711:	c1 e0 04             	shl    $0x4,%eax
   10714:	05 00 70 01 00       	add    $0x17000,%eax
   10719:	89 45 f0             	mov    %eax,-0x10(%ebp)

        // 可能有多个页，建立多个页的配置
        // 简化起见，不考虑4M的情况
        int vstart = down2((uint32_t)map->vstart, MEM_PAGE_SIZE);
   1071c:	8b 45 f0             	mov    -0x10(%ebp),%eax
   1071f:	8b 00                	mov    (%eax),%eax
   10721:	83 ec 08             	sub    $0x8,%esp
   10724:	68 00 10 00 00       	push   $0x1000
   10729:	50                   	push   %eax
   1072a:	e8 f9 fb ff ff       	call   10328 <down2>
   1072f:	83 c4 10             	add    $0x10,%esp
   10732:	89 45 ec             	mov    %eax,-0x14(%ebp)
        int vend = up2((uint32_t)map->vend, MEM_PAGE_SIZE);
   10735:	8b 45 f0             	mov    -0x10(%ebp),%eax
   10738:	8b 40 04             	mov    0x4(%eax),%eax
   1073b:	83 ec 08             	sub    $0x8,%esp
   1073e:	68 00 10 00 00       	push   $0x1000
   10743:	50                   	push   %eax
   10744:	e8 c8 fb ff ff       	call   10311 <up2>
   10749:	83 c4 10             	add    $0x10,%esp
   1074c:	89 45 e8             	mov    %eax,-0x18(%ebp)
        int page_count = (vend - vstart) / MEM_PAGE_SIZE;
   1074f:	8b 45 e8             	mov    -0x18(%ebp),%eax
   10752:	2b 45 ec             	sub    -0x14(%ebp),%eax
   10755:	8d 90 ff 0f 00 00    	lea    0xfff(%eax),%edx
   1075b:	85 c0                	test   %eax,%eax
   1075d:	0f 48 c2             	cmovs  %edx,%eax
   10760:	c1 f8 0c             	sar    $0xc,%eax
   10763:	89 45 e4             	mov    %eax,-0x1c(%ebp)

        memory_create_map(kernel_page_dir, vstart, (uint32_t)map->pstart, page_count, map->perm);
   10766:	8b 45 f0             	mov    -0x10(%ebp),%eax
   10769:	8b 50 0c             	mov    0xc(%eax),%edx
   1076c:	8b 45 f0             	mov    -0x10(%ebp),%eax
   1076f:	8b 40 08             	mov    0x8(%eax),%eax
   10772:	89 c1                	mov    %eax,%ecx
   10774:	8b 45 ec             	mov    -0x14(%ebp),%eax
   10777:	83 ec 0c             	sub    $0xc,%esp
   1077a:	52                   	push   %edx
   1077b:	ff 75 e4             	pushl  -0x1c(%ebp)
   1077e:	51                   	push   %ecx
   1077f:	50                   	push   %eax
   10780:	68 00 b0 01 00       	push   $0x1b000
   10785:	e8 cf fe ff ff       	call   10659 <memory_create_map>
   1078a:	83 c4 20             	add    $0x20,%esp
    for (int i = 0; i < sizeof(kernel_map) / sizeof(memory_map_t); i++)
   1078d:	83 45 f4 01          	addl   $0x1,-0xc(%ebp)
   10791:	8b 45 f4             	mov    -0xc(%ebp),%eax
   10794:	83 f8 04             	cmp    $0x4,%eax
   10797:	0f 86 71 ff ff ff    	jbe    1070e <create_kernel_table+0x29>
    }
}
   1079d:	90                   	nop
   1079e:	c9                   	leave  
   1079f:	c3                   	ret    

000107a0 <memory_create_uvm>:
/**
 * @brief 创建进程的初始页表
 * 主要的工作创建页目录表，然后从内核页表中复制一部分
 */
uint32_t memory_create_uvm(void)
{
   107a0:	55                   	push   %ebp
   107a1:	89 e5                	mov    %esp,%ebp
   107a3:	83 ec 18             	sub    $0x18,%esp
    pde_t *page_dir = (pde_t *)addr_alloc_page(&paddr_alloc, 1);
   107a6:	83 ec 08             	sub    $0x8,%esp
   107a9:	6a 01                	push   $0x1
   107ab:	68 00 a0 01 00       	push   $0x1a000
   107b0:	e8 89 fc ff ff       	call   1043e <addr_alloc_page>
   107b5:	83 c4 10             	add    $0x10,%esp
   107b8:	89 45 f0             	mov    %eax,-0x10(%ebp)
    if (page_dir == 0)
   107bb:	83 7d f0 00          	cmpl   $0x0,-0x10(%ebp)
   107bf:	75 07                	jne    107c8 <memory_create_uvm+0x28>
    {
        return 0;
   107c1:	b8 00 00 00 00       	mov    $0x0,%eax
   107c6:	eb 5b                	jmp    10823 <memory_create_uvm+0x83>
    }
    kernel_memset((void *)page_dir, 0, MEM_PAGE_SIZE);
   107c8:	83 ec 04             	sub    $0x4,%esp
   107cb:	68 00 10 00 00       	push   $0x1000
   107d0:	6a 00                	push   $0x0
   107d2:	ff 75 f0             	pushl  -0x10(%ebp)
   107d5:	e8 f3 4f 00 00       	call   157cd <kernel_memset>
   107da:	83 c4 10             	add    $0x10,%esp

    // 复制整个内核空间的页目录项，以便与其它进程共享内核空间
    // 用户空间的内存映射暂不处理，等加载程序时创建
    uint32_t user_pde_start = pde_index(MEMORY_TASK_BASE);
   107dd:	83 ec 0c             	sub    $0xc,%esp
   107e0:	68 00 00 00 80       	push   $0x80000000
   107e5:	e8 57 fb ff ff       	call   10341 <pde_index>
   107ea:	83 c4 10             	add    $0x10,%esp
   107ed:	89 45 ec             	mov    %eax,-0x14(%ebp)
    for (int i = 0; i < user_pde_start; i++)
   107f0:	c7 45 f4 00 00 00 00 	movl   $0x0,-0xc(%ebp)
   107f7:	eb 1f                	jmp    10818 <memory_create_uvm+0x78>
    {
        page_dir[i].v = kernel_page_dir[i].v;
   107f9:	8b 45 f4             	mov    -0xc(%ebp),%eax
   107fc:	8d 14 85 00 00 00 00 	lea    0x0(,%eax,4),%edx
   10803:	8b 45 f0             	mov    -0x10(%ebp),%eax
   10806:	01 c2                	add    %eax,%edx
   10808:	8b 45 f4             	mov    -0xc(%ebp),%eax
   1080b:	8b 04 85 00 b0 01 00 	mov    0x1b000(,%eax,4),%eax
   10812:	89 02                	mov    %eax,(%edx)
    for (int i = 0; i < user_pde_start; i++)
   10814:	83 45 f4 01          	addl   $0x1,-0xc(%ebp)
   10818:	8b 45 f4             	mov    -0xc(%ebp),%eax
   1081b:	39 45 ec             	cmp    %eax,-0x14(%ebp)
   1081e:	77 d9                	ja     107f9 <memory_create_uvm+0x59>
    }

    return (uint32_t)page_dir;
   10820:	8b 45 f0             	mov    -0x10(%ebp),%eax
}
   10823:	c9                   	leave  
   10824:	c3                   	ret    

00010825 <memory_destroy_uvm>:

/**
 * @brief 销毁用户空间内存
 */
void memory_destroy_uvm(uint32_t page_dir)
{
   10825:	55                   	push   %ebp
   10826:	89 e5                	mov    %esp,%ebp
   10828:	83 ec 28             	sub    $0x28,%esp
    uint32_t user_pde_start = pde_index(MEMORY_TASK_BASE);
   1082b:	68 00 00 00 80       	push   $0x80000000
   10830:	e8 0c fb ff ff       	call   10341 <pde_index>
   10835:	83 c4 04             	add    $0x4,%esp
   10838:	89 45 e4             	mov    %eax,-0x1c(%ebp)
    pde_t *pde = (pde_t *)page_dir + user_pde_start;
   1083b:	8b 45 e4             	mov    -0x1c(%ebp),%eax
   1083e:	8d 14 85 00 00 00 00 	lea    0x0(,%eax,4),%edx
   10845:	8b 45 08             	mov    0x8(%ebp),%eax
   10848:	01 d0                	add    %edx,%eax
   1084a:	89 45 f4             	mov    %eax,-0xc(%ebp)

    ASSERT(page_dir != 0);
   1084d:	83 7d 08 00          	cmpl   $0x0,0x8(%ebp)
   10851:	75 1c                	jne    1086f <memory_destroy_uvm+0x4a>
   10853:	68 f0 5e 01 00       	push   $0x15ef0
   10858:	68 fc 5f 01 00       	push   $0x15ffc
   1085d:	68 e7 00 00 00       	push   $0xe7
   10862:	68 b4 5e 01 00       	push   $0x15eb4
   10867:	e8 8a 52 00 00       	call   15af6 <panic>
   1086c:	83 c4 10             	add    $0x10,%esp

    // 释放页表中对应的各项，不包含映射的内核页面
    for (int i = user_pde_start; i < PDE_CNT; i++, pde++)
   1086f:	8b 45 e4             	mov    -0x1c(%ebp),%eax
   10872:	89 45 f0             	mov    %eax,-0x10(%ebp)
   10875:	e9 95 00 00 00       	jmp    1090f <memory_destroy_uvm+0xea>
    {
        if (!pde->present)
   1087a:	8b 45 f4             	mov    -0xc(%ebp),%eax
   1087d:	0f b6 00             	movzbl (%eax),%eax
   10880:	83 e0 01             	and    $0x1,%eax
   10883:	84 c0                	test   %al,%al
   10885:	74 7f                	je     10906 <memory_destroy_uvm+0xe1>
        {
            continue;
        }

        // 释放页表对应的物理页 + 页表
        pte_t *pte = (pte_t *)pde_paddr(pde);
   10887:	83 ec 0c             	sub    $0xc,%esp
   1088a:	ff 75 f4             	pushl  -0xc(%ebp)
   1088d:	e8 c3 fa ff ff       	call   10355 <pde_paddr>
   10892:	83 c4 10             	add    $0x10,%esp
   10895:	89 45 ec             	mov    %eax,-0x14(%ebp)
        for (int j = 0; j < PTE_CNT; j++, pte++)
   10898:	c7 45 e8 00 00 00 00 	movl   $0x0,-0x18(%ebp)
   1089f:	eb 39                	jmp    108da <memory_destroy_uvm+0xb5>
        {
            if (!pte->present)
   108a1:	8b 45 ec             	mov    -0x14(%ebp),%eax
   108a4:	0f b6 00             	movzbl (%eax),%eax
   108a7:	83 e0 01             	and    $0x1,%eax
   108aa:	84 c0                	test   %al,%al
   108ac:	74 23                	je     108d1 <memory_destroy_uvm+0xac>
            {
                continue;
            }

            addr_free_page(&paddr_alloc, pte_paddr(pte), 1);
   108ae:	83 ec 0c             	sub    $0xc,%esp
   108b1:	ff 75 ec             	pushl  -0x14(%ebp)
   108b4:	e8 d3 fa ff ff       	call   1038c <pte_paddr>
   108b9:	83 c4 10             	add    $0x10,%esp
   108bc:	83 ec 04             	sub    $0x4,%esp
   108bf:	6a 01                	push   $0x1
   108c1:	50                   	push   %eax
   108c2:	68 00 a0 01 00       	push   $0x1a000
   108c7:	e8 d9 fb ff ff       	call   104a5 <addr_free_page>
   108cc:	83 c4 10             	add    $0x10,%esp
   108cf:	eb 01                	jmp    108d2 <memory_destroy_uvm+0xad>
                continue;
   108d1:	90                   	nop
        for (int j = 0; j < PTE_CNT; j++, pte++)
   108d2:	83 45 e8 01          	addl   $0x1,-0x18(%ebp)
   108d6:	83 45 ec 04          	addl   $0x4,-0x14(%ebp)
   108da:	81 7d e8 ff 03 00 00 	cmpl   $0x3ff,-0x18(%ebp)
   108e1:	7e be                	jle    108a1 <memory_destroy_uvm+0x7c>
        }

        addr_free_page(&paddr_alloc, (uint32_t)pde_paddr(pde), 1);
   108e3:	83 ec 0c             	sub    $0xc,%esp
   108e6:	ff 75 f4             	pushl  -0xc(%ebp)
   108e9:	e8 67 fa ff ff       	call   10355 <pde_paddr>
   108ee:	83 c4 10             	add    $0x10,%esp
   108f1:	83 ec 04             	sub    $0x4,%esp
   108f4:	6a 01                	push   $0x1
   108f6:	50                   	push   %eax
   108f7:	68 00 a0 01 00       	push   $0x1a000
   108fc:	e8 a4 fb ff ff       	call   104a5 <addr_free_page>
   10901:	83 c4 10             	add    $0x10,%esp
   10904:	eb 01                	jmp    10907 <memory_destroy_uvm+0xe2>
            continue;
   10906:	90                   	nop
    for (int i = user_pde_start; i < PDE_CNT; i++, pde++)
   10907:	83 45 f0 01          	addl   $0x1,-0x10(%ebp)
   1090b:	83 45 f4 04          	addl   $0x4,-0xc(%ebp)
   1090f:	81 7d f0 ff 03 00 00 	cmpl   $0x3ff,-0x10(%ebp)
   10916:	0f 8e 5e ff ff ff    	jle    1087a <memory_destroy_uvm+0x55>
    }

    // 页目录表
    addr_free_page(&paddr_alloc, page_dir, 1);
   1091c:	83 ec 04             	sub    $0x4,%esp
   1091f:	6a 01                	push   $0x1
   10921:	ff 75 08             	pushl  0x8(%ebp)
   10924:	68 00 a0 01 00       	push   $0x1a000
   10929:	e8 77 fb ff ff       	call   104a5 <addr_free_page>
   1092e:	83 c4 10             	add    $0x10,%esp
}
   10931:	90                   	nop
   10932:	c9                   	leave  
   10933:	c3                   	ret    

00010934 <memory_copy_uvm>:

/**
 * @brief 复制页表及其所有的内存空间
 */
uint32_t memory_copy_uvm(uint32_t page_dir)
{
   10934:	55                   	push   %ebp
   10935:	89 e5                	mov    %esp,%ebp
   10937:	83 ec 38             	sub    $0x38,%esp
    // 复制基础页表
    uint32_t to_page_dir = memory_create_uvm();
   1093a:	e8 61 fe ff ff       	call   107a0 <memory_create_uvm>
   1093f:	89 45 e4             	mov    %eax,-0x1c(%ebp)
    if (to_page_dir == 0)
   10942:	83 7d e4 00          	cmpl   $0x0,-0x1c(%ebp)
   10946:	0f 84 1b 01 00 00    	je     10a67 <memory_copy_uvm+0x133>
    {
        goto copy_uvm_failed;
    }

    // 再复制用户空间的各项
    uint32_t user_pde_start = pde_index(MEMORY_TASK_BASE);
   1094c:	83 ec 0c             	sub    $0xc,%esp
   1094f:	68 00 00 00 80       	push   $0x80000000
   10954:	e8 e8 f9 ff ff       	call   10341 <pde_index>
   10959:	83 c4 10             	add    $0x10,%esp
   1095c:	89 45 e0             	mov    %eax,-0x20(%ebp)
    pde_t *pde = (pde_t *)page_dir + user_pde_start;
   1095f:	8b 45 e0             	mov    -0x20(%ebp),%eax
   10962:	8d 14 85 00 00 00 00 	lea    0x0(,%eax,4),%edx
   10969:	8b 45 08             	mov    0x8(%ebp),%eax
   1096c:	01 d0                	add    %edx,%eax
   1096e:	89 45 f4             	mov    %eax,-0xc(%ebp)

    // 遍历用户空间页目录项
    for (int i = user_pde_start; i < PDE_CNT; i++, pde++)
   10971:	8b 45 e0             	mov    -0x20(%ebp),%eax
   10974:	89 45 f0             	mov    %eax,-0x10(%ebp)
   10977:	e9 d9 00 00 00       	jmp    10a55 <memory_copy_uvm+0x121>
    {
        if (!pde->present)
   1097c:	8b 45 f4             	mov    -0xc(%ebp),%eax
   1097f:	0f b6 00             	movzbl (%eax),%eax
   10982:	83 e0 01             	and    $0x1,%eax
   10985:	84 c0                	test   %al,%al
   10987:	0f 84 bf 00 00 00    	je     10a4c <memory_copy_uvm+0x118>
        {
            continue;
        }

        // 遍历页表
        pte_t *pte = (pte_t *)pde_paddr(pde);
   1098d:	83 ec 0c             	sub    $0xc,%esp
   10990:	ff 75 f4             	pushl  -0xc(%ebp)
   10993:	e8 bd f9 ff ff       	call   10355 <pde_paddr>
   10998:	83 c4 10             	add    $0x10,%esp
   1099b:	89 45 ec             	mov    %eax,-0x14(%ebp)
        for (int j = 0; j < PTE_CNT; j++, pte++)
   1099e:	c7 45 e8 00 00 00 00 	movl   $0x0,-0x18(%ebp)
   109a5:	e9 93 00 00 00       	jmp    10a3d <memory_copy_uvm+0x109>
        {
            if (!pte->present)
   109aa:	8b 45 ec             	mov    -0x14(%ebp),%eax
   109ad:	0f b6 00             	movzbl (%eax),%eax
   109b0:	83 e0 01             	and    $0x1,%eax
   109b3:	84 c0                	test   %al,%al
   109b5:	74 7d                	je     10a34 <memory_copy_uvm+0x100>
            {
                continue;
            }

            // 分配物理内存
            uint32_t page = addr_alloc_page(&paddr_alloc, 1);
   109b7:	83 ec 08             	sub    $0x8,%esp
   109ba:	6a 01                	push   $0x1
   109bc:	68 00 a0 01 00       	push   $0x1a000
   109c1:	e8 78 fa ff ff       	call   1043e <addr_alloc_page>
   109c6:	83 c4 10             	add    $0x10,%esp
   109c9:	89 45 dc             	mov    %eax,-0x24(%ebp)
            if (page == 0)
   109cc:	83 7d dc 00          	cmpl   $0x0,-0x24(%ebp)
   109d0:	0f 84 94 00 00 00    	je     10a6a <memory_copy_uvm+0x136>
            {
                goto copy_uvm_failed;
            }

            // 建立映射关系
            uint32_t vaddr = (i << 22) | (j << 12);
   109d6:	8b 45 f0             	mov    -0x10(%ebp),%eax
   109d9:	c1 e0 16             	shl    $0x16,%eax
   109dc:	89 c2                	mov    %eax,%edx
   109de:	8b 45 e8             	mov    -0x18(%ebp),%eax
   109e1:	c1 e0 0c             	shl    $0xc,%eax
   109e4:	09 d0                	or     %edx,%eax
   109e6:	89 45 d8             	mov    %eax,-0x28(%ebp)
            int err = memory_create_map((pde_t *)to_page_dir, vaddr, page, 1, get_pte_perm(pte));
   109e9:	83 ec 0c             	sub    $0xc,%esp
   109ec:	ff 75 ec             	pushl  -0x14(%ebp)
   109ef:	e8 bf f9 ff ff       	call   103b3 <get_pte_perm>
   109f4:	83 c4 10             	add    $0x10,%esp
   109f7:	89 c2                	mov    %eax,%edx
   109f9:	8b 45 e4             	mov    -0x1c(%ebp),%eax
   109fc:	83 ec 0c             	sub    $0xc,%esp
   109ff:	52                   	push   %edx
   10a00:	6a 01                	push   $0x1
   10a02:	ff 75 dc             	pushl  -0x24(%ebp)
   10a05:	ff 75 d8             	pushl  -0x28(%ebp)
   10a08:	50                   	push   %eax
   10a09:	e8 4b fc ff ff       	call   10659 <memory_create_map>
   10a0e:	83 c4 20             	add    $0x20,%esp
   10a11:	89 45 d4             	mov    %eax,-0x2c(%ebp)
            if (err < 0)
   10a14:	83 7d d4 00          	cmpl   $0x0,-0x2c(%ebp)
   10a18:	78 53                	js     10a6d <memory_copy_uvm+0x139>
            {
                goto copy_uvm_failed;
            }

            // 复制内容。
            kernel_memcpy((void *)page, (void *)vaddr, MEM_PAGE_SIZE);
   10a1a:	8b 55 d8             	mov    -0x28(%ebp),%edx
   10a1d:	8b 45 dc             	mov    -0x24(%ebp),%eax
   10a20:	83 ec 04             	sub    $0x4,%esp
   10a23:	68 00 10 00 00       	push   $0x1000
   10a28:	52                   	push   %edx
   10a29:	50                   	push   %eax
   10a2a:	e8 4f 4d 00 00       	call   1577e <kernel_memcpy>
   10a2f:	83 c4 10             	add    $0x10,%esp
   10a32:	eb 01                	jmp    10a35 <memory_copy_uvm+0x101>
                continue;
   10a34:	90                   	nop
        for (int j = 0; j < PTE_CNT; j++, pte++)
   10a35:	83 45 e8 01          	addl   $0x1,-0x18(%ebp)
   10a39:	83 45 ec 04          	addl   $0x4,-0x14(%ebp)
   10a3d:	81 7d e8 ff 03 00 00 	cmpl   $0x3ff,-0x18(%ebp)
   10a44:	0f 8e 60 ff ff ff    	jle    109aa <memory_copy_uvm+0x76>
   10a4a:	eb 01                	jmp    10a4d <memory_copy_uvm+0x119>
            continue;
   10a4c:	90                   	nop
    for (int i = user_pde_start; i < PDE_CNT; i++, pde++)
   10a4d:	83 45 f0 01          	addl   $0x1,-0x10(%ebp)
   10a51:	83 45 f4 04          	addl   $0x4,-0xc(%ebp)
   10a55:	81 7d f0 ff 03 00 00 	cmpl   $0x3ff,-0x10(%ebp)
   10a5c:	0f 8e 1a ff ff ff    	jle    1097c <memory_copy_uvm+0x48>
        }
    }
    return to_page_dir;
   10a62:	8b 45 e4             	mov    -0x1c(%ebp),%eax
   10a65:	eb 20                	jmp    10a87 <memory_copy_uvm+0x153>
        goto copy_uvm_failed;
   10a67:	90                   	nop
   10a68:	eb 04                	jmp    10a6e <memory_copy_uvm+0x13a>
                goto copy_uvm_failed;
   10a6a:	90                   	nop
   10a6b:	eb 01                	jmp    10a6e <memory_copy_uvm+0x13a>
                goto copy_uvm_failed;
   10a6d:	90                   	nop

copy_uvm_failed:
    if (to_page_dir)
   10a6e:	83 7d e4 00          	cmpl   $0x0,-0x1c(%ebp)
   10a72:	74 0e                	je     10a82 <memory_copy_uvm+0x14e>
    {
        memory_destroy_uvm(to_page_dir);
   10a74:	83 ec 0c             	sub    $0xc,%esp
   10a77:	ff 75 e4             	pushl  -0x1c(%ebp)
   10a7a:	e8 a6 fd ff ff       	call   10825 <memory_destroy_uvm>
   10a7f:	83 c4 10             	add    $0x10,%esp
    }
    return -1;
   10a82:	b8 ff ff ff ff       	mov    $0xffffffff,%eax
}
   10a87:	c9                   	leave  
   10a88:	c3                   	ret    

00010a89 <memory_get_paddr>:
/**
 * @brief 获取指定虚拟地址的物理地址
 * 如果转换失败，返回0。
 */
uint32_t memory_get_paddr(uint32_t page_dir, uint32_t vaddr)
{
   10a89:	55                   	push   %ebp
   10a8a:	89 e5                	mov    %esp,%ebp
   10a8c:	83 ec 18             	sub    $0x18,%esp
    pte_t *pte = find_pte((pde_t *)page_dir, vaddr, 0);
   10a8f:	8b 45 08             	mov    0x8(%ebp),%eax
   10a92:	83 ec 04             	sub    $0x4,%esp
   10a95:	6a 00                	push   $0x0
   10a97:	ff 75 0c             	pushl  0xc(%ebp)
   10a9a:	50                   	push   %eax
   10a9b:	e8 09 fb ff ff       	call   105a9 <find_pte>
   10aa0:	83 c4 10             	add    $0x10,%esp
   10aa3:	89 45 f4             	mov    %eax,-0xc(%ebp)
    if (pte == (pte_t *)0)
   10aa6:	83 7d f4 00          	cmpl   $0x0,-0xc(%ebp)
   10aaa:	75 07                	jne    10ab3 <memory_get_paddr+0x2a>
    {
        return 0;
   10aac:	b8 00 00 00 00       	mov    $0x0,%eax
   10ab1:	eb 1a                	jmp    10acd <memory_get_paddr+0x44>
    }

    return pte_paddr(pte) + (vaddr & (MEM_PAGE_SIZE - 1));
   10ab3:	83 ec 0c             	sub    $0xc,%esp
   10ab6:	ff 75 f4             	pushl  -0xc(%ebp)
   10ab9:	e8 ce f8 ff ff       	call   1038c <pte_paddr>
   10abe:	83 c4 10             	add    $0x10,%esp
   10ac1:	89 c2                	mov    %eax,%edx
   10ac3:	8b 45 0c             	mov    0xc(%ebp),%eax
   10ac6:	25 ff 0f 00 00       	and    $0xfff,%eax
   10acb:	01 d0                	add    %edx,%eax
}
   10acd:	c9                   	leave  
   10ace:	c3                   	ret    

00010acf <memory_copy_uvm_data>:
/**
 * @brief 在不同的进程空间中拷贝字符串
 * page_dir为目标页表，当前仍为老页表
 */
int memory_copy_uvm_data(uint32_t to, uint32_t page_dir, uint32_t from, uint32_t size)
{
   10acf:	55                   	push   %ebp
   10ad0:	89 e5                	mov    %esp,%ebp
   10ad2:	83 ec 18             	sub    $0x18,%esp
    char *buf, *pa0;

    while (size > 0)
   10ad5:	eb 6e                	jmp    10b45 <memory_copy_uvm_data+0x76>
    {
        // 获取目标的物理地址, 也即其另一个虚拟地址
        uint32_t to_paddr = memory_get_paddr(page_dir, to);
   10ad7:	83 ec 08             	sub    $0x8,%esp
   10ada:	ff 75 08             	pushl  0x8(%ebp)
   10add:	ff 75 0c             	pushl  0xc(%ebp)
   10ae0:	e8 a4 ff ff ff       	call   10a89 <memory_get_paddr>
   10ae5:	83 c4 10             	add    $0x10,%esp
   10ae8:	89 45 f0             	mov    %eax,-0x10(%ebp)
        if (to_paddr == 0)
   10aeb:	83 7d f0 00          	cmpl   $0x0,-0x10(%ebp)
   10aef:	75 07                	jne    10af8 <memory_copy_uvm_data+0x29>
        {
            return -1;
   10af1:	b8 ff ff ff ff       	mov    $0xffffffff,%eax
   10af6:	eb 58                	jmp    10b50 <memory_copy_uvm_data+0x81>
        }

        // 计算当前可拷贝的大小
        uint32_t offset_in_page = to_paddr & (MEM_PAGE_SIZE - 1);
   10af8:	8b 45 f0             	mov    -0x10(%ebp),%eax
   10afb:	25 ff 0f 00 00       	and    $0xfff,%eax
   10b00:	89 45 ec             	mov    %eax,-0x14(%ebp)
        uint32_t curr_size = MEM_PAGE_SIZE - offset_in_page;
   10b03:	b8 00 10 00 00       	mov    $0x1000,%eax
   10b08:	2b 45 ec             	sub    -0x14(%ebp),%eax
   10b0b:	89 45 f4             	mov    %eax,-0xc(%ebp)
        if (curr_size > size)
   10b0e:	8b 45 f4             	mov    -0xc(%ebp),%eax
   10b11:	3b 45 14             	cmp    0x14(%ebp),%eax
   10b14:	76 06                	jbe    10b1c <memory_copy_uvm_data+0x4d>
        {
            curr_size = size; // 如果比较大，超过页边界，则只拷贝此页内的
   10b16:	8b 45 14             	mov    0x14(%ebp),%eax
   10b19:	89 45 f4             	mov    %eax,-0xc(%ebp)
        }

        kernel_memcpy((void *)to_paddr, (void *)from, curr_size);
   10b1c:	8b 4d f4             	mov    -0xc(%ebp),%ecx
   10b1f:	8b 55 10             	mov    0x10(%ebp),%edx
   10b22:	8b 45 f0             	mov    -0x10(%ebp),%eax
   10b25:	83 ec 04             	sub    $0x4,%esp
   10b28:	51                   	push   %ecx
   10b29:	52                   	push   %edx
   10b2a:	50                   	push   %eax
   10b2b:	e8 4e 4c 00 00       	call   1577e <kernel_memcpy>
   10b30:	83 c4 10             	add    $0x10,%esp

        size -= curr_size;
   10b33:	8b 45 f4             	mov    -0xc(%ebp),%eax
   10b36:	29 45 14             	sub    %eax,0x14(%ebp)
        to += curr_size;
   10b39:	8b 45 f4             	mov    -0xc(%ebp),%eax
   10b3c:	01 45 08             	add    %eax,0x8(%ebp)
        from += curr_size;
   10b3f:	8b 45 f4             	mov    -0xc(%ebp),%eax
   10b42:	01 45 10             	add    %eax,0x10(%ebp)
    while (size > 0)
   10b45:	83 7d 14 00          	cmpl   $0x0,0x14(%ebp)
   10b49:	75 8c                	jne    10ad7 <memory_copy_uvm_data+0x8>
    }

    return 0;
   10b4b:	b8 00 00 00 00       	mov    $0x0,%eax
}
   10b50:	c9                   	leave  
   10b51:	c3                   	ret    

00010b52 <memory_alloc_for_page_dir>:

uint32_t memory_alloc_for_page_dir(uint32_t page_dir, uint32_t vaddr, uint32_t size, int perm)
{
   10b52:	55                   	push   %ebp
   10b53:	89 e5                	mov    %esp,%ebp
   10b55:	83 ec 28             	sub    $0x28,%esp
    uint32_t curr_vaddr = vaddr;
   10b58:	8b 45 0c             	mov    0xc(%ebp),%eax
   10b5b:	89 45 f4             	mov    %eax,-0xc(%ebp)
    int page_count = up2(size, MEM_PAGE_SIZE) / MEM_PAGE_SIZE;
   10b5e:	68 00 10 00 00       	push   $0x1000
   10b63:	ff 75 10             	pushl  0x10(%ebp)
   10b66:	e8 a6 f7 ff ff       	call   10311 <up2>
   10b6b:	83 c4 08             	add    $0x8,%esp
   10b6e:	c1 e8 0c             	shr    $0xc,%eax
   10b71:	89 45 ec             	mov    %eax,-0x14(%ebp)
    vaddr = down2(vaddr, MEM_PAGE_SIZE);
   10b74:	68 00 10 00 00       	push   $0x1000
   10b79:	ff 75 0c             	pushl  0xc(%ebp)
   10b7c:	e8 a7 f7 ff ff       	call   10328 <down2>
   10b81:	83 c4 08             	add    $0x8,%esp
   10b84:	89 45 0c             	mov    %eax,0xc(%ebp)

    // 逐页分配内存，然后建立映射关系
    for (int i = 0; i < page_count; i++)
   10b87:	c7 45 f0 00 00 00 00 	movl   $0x0,-0x10(%ebp)
   10b8e:	eb 7b                	jmp    10c0b <memory_alloc_for_page_dir+0xb9>
    {
        // 分配需要的内存
        uint32_t paddr = addr_alloc_page(&paddr_alloc, 1);
   10b90:	83 ec 08             	sub    $0x8,%esp
   10b93:	6a 01                	push   $0x1
   10b95:	68 00 a0 01 00       	push   $0x1a000
   10b9a:	e8 9f f8 ff ff       	call   1043e <addr_alloc_page>
   10b9f:	83 c4 10             	add    $0x10,%esp
   10ba2:	89 45 e8             	mov    %eax,-0x18(%ebp)
        if (paddr == 0)
   10ba5:	83 7d e8 00          	cmpl   $0x0,-0x18(%ebp)
   10ba9:	75 17                	jne    10bc2 <memory_alloc_for_page_dir+0x70>
        {
            log_printf("mem alloc failed. no memory");
   10bab:	83 ec 0c             	sub    $0xc,%esp
   10bae:	68 fe 5e 01 00       	push   $0x15efe
   10bb3:	e8 0e 52 00 00       	call   15dc6 <log_printf>
   10bb8:	83 c4 10             	add    $0x10,%esp
            return 0;
   10bbb:	b8 00 00 00 00       	mov    $0x0,%eax
   10bc0:	eb 5a                	jmp    10c1c <memory_alloc_for_page_dir+0xca>
        }

        // 建立分配的内存与指定地址的关联
        int err = memory_create_map((pde_t *)page_dir, curr_vaddr, paddr, 1, perm);
   10bc2:	8b 55 14             	mov    0x14(%ebp),%edx
   10bc5:	8b 45 08             	mov    0x8(%ebp),%eax
   10bc8:	83 ec 0c             	sub    $0xc,%esp
   10bcb:	52                   	push   %edx
   10bcc:	6a 01                	push   $0x1
   10bce:	ff 75 e8             	pushl  -0x18(%ebp)
   10bd1:	ff 75 f4             	pushl  -0xc(%ebp)
   10bd4:	50                   	push   %eax
   10bd5:	e8 7f fa ff ff       	call   10659 <memory_create_map>
   10bda:	83 c4 20             	add    $0x20,%esp
   10bdd:	89 45 e4             	mov    %eax,-0x1c(%ebp)
        if (err < 0)
   10be0:	83 7d e4 00          	cmpl   $0x0,-0x1c(%ebp)
   10be4:	79 1a                	jns    10c00 <memory_alloc_for_page_dir+0xae>
        {
            log_printf("create memory map failed. err = %d", err);
   10be6:	83 ec 08             	sub    $0x8,%esp
   10be9:	ff 75 e4             	pushl  -0x1c(%ebp)
   10bec:	68 1c 5f 01 00       	push   $0x15f1c
   10bf1:	e8 d0 51 00 00       	call   15dc6 <log_printf>
   10bf6:	83 c4 10             	add    $0x10,%esp
            // addr_free_page(&paddr_alloc, vaddr, i + 1); 清理之前分配的页
            return -1;
   10bf9:	b8 ff ff ff ff       	mov    $0xffffffff,%eax
   10bfe:	eb 1c                	jmp    10c1c <memory_alloc_for_page_dir+0xca>
        }

        curr_vaddr += MEM_PAGE_SIZE;
   10c00:	81 45 f4 00 10 00 00 	addl   $0x1000,-0xc(%ebp)
    for (int i = 0; i < page_count; i++)
   10c07:	83 45 f0 01          	addl   $0x1,-0x10(%ebp)
   10c0b:	8b 45 f0             	mov    -0x10(%ebp),%eax
   10c0e:	3b 45 ec             	cmp    -0x14(%ebp),%eax
   10c11:	0f 8c 79 ff ff ff    	jl     10b90 <memory_alloc_for_page_dir+0x3e>
    }

    return 0;
   10c17:	b8 00 00 00 00       	mov    $0x0,%eax
}
   10c1c:	c9                   	leave  
   10c1d:	c3                   	ret    

00010c1e <memory_alloc_page>:
/**
 * @brief 分配一页内存
 * 主要用于内核空间内存的分配，不用于进程内存空间
 */
uint32_t memory_alloc_page(void)
{
   10c1e:	55                   	push   %ebp
   10c1f:	89 e5                	mov    %esp,%ebp
   10c21:	83 ec 08             	sub    $0x8,%esp
    // 内核空间虚拟地址与物理地址相同
    return addr_alloc_page(&paddr_alloc, 1);
   10c24:	83 ec 08             	sub    $0x8,%esp
   10c27:	6a 01                	push   $0x1
   10c29:	68 00 a0 01 00       	push   $0x1a000
   10c2e:	e8 0b f8 ff ff       	call   1043e <addr_alloc_page>
   10c33:	83 c4 10             	add    $0x10,%esp
}
   10c36:	c9                   	leave  
   10c37:	c3                   	ret    

00010c38 <memory_free_page>:

/**
 * @brief 释放一页内存
 */
void memory_free_page(uint32_t addr)
{
   10c38:	55                   	push   %ebp
   10c39:	89 e5                	mov    %esp,%ebp
   10c3b:	83 ec 18             	sub    $0x18,%esp
    if (addr < MEMORY_TASK_BASE)
   10c3e:	8b 45 08             	mov    0x8(%ebp),%eax
   10c41:	85 c0                	test   %eax,%eax
   10c43:	78 17                	js     10c5c <memory_free_page+0x24>
    {
        // 内核空间，直接释放
        addr_free_page(&paddr_alloc, addr, 1);
   10c45:	83 ec 04             	sub    $0x4,%esp
   10c48:	6a 01                	push   $0x1
   10c4a:	ff 75 08             	pushl  0x8(%ebp)
   10c4d:	68 00 a0 01 00       	push   $0x1a000
   10c52:	e8 4e f8 ff ff       	call   104a5 <addr_free_page>
   10c57:	83 c4 10             	add    $0x10,%esp
        addr_free_page(&paddr_alloc, pte_paddr(pte), 1);

        // 释放页表
        pte->v = 0;
    }
}
   10c5a:	eb 72                	jmp    10cce <memory_free_page+0x96>
        pte_t *pte = find_pte(current_page_dir(), addr, 0);
   10c5c:	e8 72 f7 ff ff       	call   103d3 <current_page_dir>
   10c61:	83 ec 04             	sub    $0x4,%esp
   10c64:	6a 00                	push   $0x0
   10c66:	ff 75 08             	pushl  0x8(%ebp)
   10c69:	50                   	push   %eax
   10c6a:	e8 3a f9 ff ff       	call   105a9 <find_pte>
   10c6f:	83 c4 10             	add    $0x10,%esp
   10c72:	89 45 f4             	mov    %eax,-0xc(%ebp)
        ASSERT((pte == (pte_t *)0) && pte->present);
   10c75:	83 7d f4 00          	cmpl   $0x0,-0xc(%ebp)
   10c79:	75 0d                	jne    10c88 <memory_free_page+0x50>
   10c7b:	8b 45 f4             	mov    -0xc(%ebp),%eax
   10c7e:	0f b6 00             	movzbl (%eax),%eax
   10c81:	83 e0 01             	and    $0x1,%eax
   10c84:	84 c0                	test   %al,%al
   10c86:	75 1c                	jne    10ca4 <memory_free_page+0x6c>
   10c88:	68 40 5f 01 00       	push   $0x15f40
   10c8d:	68 10 60 01 00       	push   $0x16010
   10c92:	68 ac 01 00 00       	push   $0x1ac
   10c97:	68 b4 5e 01 00       	push   $0x15eb4
   10c9c:	e8 55 4e 00 00       	call   15af6 <panic>
   10ca1:	83 c4 10             	add    $0x10,%esp
        addr_free_page(&paddr_alloc, pte_paddr(pte), 1);
   10ca4:	83 ec 0c             	sub    $0xc,%esp
   10ca7:	ff 75 f4             	pushl  -0xc(%ebp)
   10caa:	e8 dd f6 ff ff       	call   1038c <pte_paddr>
   10caf:	83 c4 10             	add    $0x10,%esp
   10cb2:	83 ec 04             	sub    $0x4,%esp
   10cb5:	6a 01                	push   $0x1
   10cb7:	50                   	push   %eax
   10cb8:	68 00 a0 01 00       	push   $0x1a000
   10cbd:	e8 e3 f7 ff ff       	call   104a5 <addr_free_page>
   10cc2:	83 c4 10             	add    $0x10,%esp
        pte->v = 0;
   10cc5:	8b 45 f4             	mov    -0xc(%ebp),%eax
   10cc8:	c7 00 00 00 00 00    	movl   $0x0,(%eax)
}
   10cce:	90                   	nop
   10ccf:	c9                   	leave  
   10cd0:	c3                   	ret    

00010cd1 <memory_alloc_page_for>:

/**
 * @brief 为指定的虚拟地址空间分配多页内存
 */
int memory_alloc_page_for(uint32_t addr, uint32_t size, int perm)
{
   10cd1:	55                   	push   %ebp
   10cd2:	89 e5                	mov    %esp,%ebp
   10cd4:	83 ec 08             	sub    $0x8,%esp
    return memory_alloc_for_page_dir(task_current()->tss.cr3, addr, size, perm);
   10cd7:	e8 a5 08 00 00       	call   11581 <task_current>
   10cdc:	8b 80 74 02 00 00    	mov    0x274(%eax),%eax
   10ce2:	ff 75 10             	pushl  0x10(%ebp)
   10ce5:	ff 75 0c             	pushl  0xc(%ebp)
   10ce8:	ff 75 08             	pushl  0x8(%ebp)
   10ceb:	50                   	push   %eax
   10cec:	e8 61 fe ff ff       	call   10b52 <memory_alloc_for_page_dir>
   10cf1:	83 c4 10             	add    $0x10,%esp
}
   10cf4:	c9                   	leave  
   10cf5:	c3                   	ret    

00010cf6 <memory_init>:
 * 该函数的主要任务：
 * 1、初始化物理内存分配器：将所有物理内存管理起来. 在1MB内存中分配物理位图
 * 2、重新创建内核页表：原loader中创建的页表已经不再合适
 */
void memory_init(boot_info_t *boot_info)
{
   10cf6:	55                   	push   %ebp
   10cf7:	89 e5                	mov    %esp,%ebp
   10cf9:	83 ec 18             	sub    $0x18,%esp
    extern uint8_t *mem_free_start;
    log_printf("mem init");
   10cfc:	83 ec 0c             	sub    $0xc,%esp
   10cff:	68 64 5f 01 00       	push   $0x15f64
   10d04:	e8 bd 50 00 00       	call   15dc6 <log_printf>
   10d09:	83 c4 10             	add    $0x10,%esp
    show_mem_info(boot_info);
   10d0c:	83 ec 0c             	sub    $0xc,%esp
   10d0f:	ff 75 08             	pushl  0x8(%ebp)
   10d12:	e8 f0 f7 ff ff       	call   10507 <show_mem_info>
   10d17:	83 c4 10             	add    $0x10,%esp

    // 在内核数据后面放物理页位图
    uint8_t *mem_free = (uint8_t *)&mem_free_start;
   10d1a:	c7 45 f4 bf 47 07 00 	movl   $0x747bf,-0xc(%ebp)

    uint32_t mem_up1MB_free = total_mem_size(boot_info) - MEM_EXT_START;
   10d21:	83 ec 0c             	sub    $0xc,%esp
   10d24:	ff 75 08             	pushl  0x8(%ebp)
   10d27:	e8 41 f8 ff ff       	call   1056d <total_mem_size>
   10d2c:	83 c4 10             	add    $0x10,%esp
   10d2f:	2d 00 00 10 00       	sub    $0x100000,%eax
   10d34:	89 45 f0             	mov    %eax,-0x10(%ebp)
    mem_up1MB_free = down2(mem_up1MB_free, MEM_PAGE_SIZE);
   10d37:	83 ec 08             	sub    $0x8,%esp
   10d3a:	68 00 10 00 00       	push   $0x1000
   10d3f:	ff 75 f0             	pushl  -0x10(%ebp)
   10d42:	e8 e1 f5 ff ff       	call   10328 <down2>
   10d47:	83 c4 10             	add    $0x10,%esp
   10d4a:	89 45 f0             	mov    %eax,-0x10(%ebp)
    log_printf("free memory: 0x%x, size:0x%x", MEM_EXT_START, mem_up1MB_free);
   10d4d:	83 ec 04             	sub    $0x4,%esp
   10d50:	ff 75 f0             	pushl  -0x10(%ebp)
   10d53:	68 00 00 10 00       	push   $0x100000
   10d58:	68 6d 5f 01 00       	push   $0x15f6d
   10d5d:	e8 64 50 00 00       	call   15dc6 <log_printf>
   10d62:	83 c4 10             	add    $0x10,%esp

    // 4GB大小需要总共4*1024*1024*1024/4096/8=128KB的位图, 使用低1MB的RAM空间中足够
    // 该部分的内存仅跟在mem_free_start开始放置
    addr_alloc_init(&paddr_alloc, mem_free, MEM_EXT_START, mem_up1MB_free, MEM_PAGE_SIZE);
   10d65:	83 ec 0c             	sub    $0xc,%esp
   10d68:	68 00 10 00 00       	push   $0x1000
   10d6d:	ff 75 f0             	pushl  -0x10(%ebp)
   10d70:	68 00 00 10 00       	push   $0x100000
   10d75:	ff 75 f4             	pushl  -0xc(%ebp)
   10d78:	68 00 a0 01 00       	push   $0x1a000
   10d7d:	e8 64 f6 ff ff       	call   103e6 <addr_alloc_init>
   10d82:	83 c4 20             	add    $0x20,%esp
    mem_free += bitmap_byte_count(paddr_alloc.size / MEM_PAGE_SIZE); // mem_free 跳过bit的地址
   10d85:	a1 24 a0 01 00       	mov    0x1a024,%eax
   10d8a:	c1 e8 0c             	shr    $0xc,%eax
   10d8d:	83 ec 0c             	sub    $0xc,%esp
   10d90:	50                   	push   %eax
   10d91:	e8 2c 46 00 00       	call   153c2 <bitmap_byte_count>
   10d96:	83 c4 10             	add    $0x10,%esp
   10d99:	01 45 f4             	add    %eax,-0xc(%ebp)
    // 到这里，mem_free应该比EBDA地址要小
    ASSERT(mem_free < (uint8_t *)MEM_EBDA_START);
   10d9c:	81 7d f4 ff ff 07 00 	cmpl   $0x7ffff,-0xc(%ebp)
   10da3:	76 1c                	jbe    10dc1 <memory_init+0xcb>
   10da5:	68 8c 5f 01 00       	push   $0x15f8c
   10daa:	68 24 60 01 00       	push   $0x16024
   10daf:	68 d6 01 00 00       	push   $0x1d6
   10db4:	68 b4 5e 01 00       	push   $0x15eb4
   10db9:	e8 38 4d 00 00       	call   15af6 <panic>
   10dbe:	83 c4 10             	add    $0x10,%esp

    // 创建内核页表并切换过去
    create_kernel_table();
   10dc1:	e8 1f f9 ff ff       	call   106e5 <create_kernel_table>
    // 先切换到当前页表
    mmu_set_page_dir((uint32_t)kernel_page_dir);
   10dc6:	b8 00 b0 01 00       	mov    $0x1b000,%eax
   10dcb:	83 ec 0c             	sub    $0xc,%esp
   10dce:	50                   	push   %eax
   10dcf:	e8 ee f5 ff ff       	call   103c2 <mmu_set_page_dir>
   10dd4:	83 c4 10             	add    $0x10,%esp
    // {
    //     addr_free_page(&addr_alloc, addr, 2);
    //     addr += 4096 * 2;
    //     log_printf("alloc addr: 0x%x", addr);
    // }
}
   10dd7:	90                   	nop
   10dd8:	c9                   	leave  
   10dd9:	c3                   	ret    

00010dda <sys_sbrk>:

/**
 * @brief 调整堆的内存分配，返回堆之前的指针
 */
char *sys_sbrk(int incr)
{
   10dda:	55                   	push   %ebp
   10ddb:	89 e5                	mov    %esp,%ebp
   10ddd:	83 ec 38             	sub    $0x38,%esp
    task_t *task = task_current();
   10de0:	e8 9c 07 00 00       	call   11581 <task_current>
   10de5:	89 45 f0             	mov    %eax,-0x10(%ebp)
    char *pre_heap_end = (char *)task->heap_end;
   10de8:	8b 45 f0             	mov    -0x10(%ebp),%eax
   10deb:	8b 40 30             	mov    0x30(%eax),%eax
   10dee:	89 45 ec             	mov    %eax,-0x14(%ebp)
    int pre_incr = incr;
   10df1:	8b 45 08             	mov    0x8(%ebp),%eax
   10df4:	89 45 e8             	mov    %eax,-0x18(%ebp)
    ASSERT(incr >= 0);
   10df7:	83 7d 08 00          	cmpl   $0x0,0x8(%ebp)
   10dfb:	79 1c                	jns    10e19 <sys_sbrk+0x3f>
   10dfd:	68 b1 5f 01 00       	push   $0x15fb1
   10e02:	68 30 60 01 00       	push   $0x16030
   10e07:	68 f7 01 00 00       	push   $0x1f7
   10e0c:	68 b4 5e 01 00       	push   $0x15eb4
   10e11:	e8 e0 4c 00 00       	call   15af6 <panic>
   10e16:	83 c4 10             	add    $0x10,%esp
    // 如果地址为0，则返回有效的heap区域的顶端
    if (incr == 0)
   10e19:	83 7d 08 00          	cmpl   $0x0,0x8(%ebp)
   10e1d:	75 1b                	jne    10e3a <sys_sbrk+0x60>
    {
        log_printf("sbrk(0): end = 0x%x", pre_heap_end);
   10e1f:	83 ec 08             	sub    $0x8,%esp
   10e22:	ff 75 ec             	pushl  -0x14(%ebp)
   10e25:	68 bb 5f 01 00       	push   $0x15fbb
   10e2a:	e8 97 4f 00 00       	call   15dc6 <log_printf>
   10e2f:	83 c4 10             	add    $0x10,%esp
        return pre_heap_end;
   10e32:	8b 45 ec             	mov    -0x14(%ebp),%eax
   10e35:	e9 aa 00 00 00       	jmp    10ee4 <sys_sbrk+0x10a>
    }
    uint32_t start = task->heap_end;
   10e3a:	8b 45 f0             	mov    -0x10(%ebp),%eax
   10e3d:	8b 40 30             	mov    0x30(%eax),%eax
   10e40:	89 45 f4             	mov    %eax,-0xc(%ebp)
    uint32_t end = start + incr;
   10e43:	8b 55 08             	mov    0x8(%ebp),%edx
   10e46:	8b 45 f4             	mov    -0xc(%ebp),%eax
   10e49:	01 d0                	add    %edx,%eax
   10e4b:	89 45 e4             	mov    %eax,-0x1c(%ebp)

    // 起始偏移非0
    int start_offset = start % MEM_PAGE_SIZE;
   10e4e:	8b 45 f4             	mov    -0xc(%ebp),%eax
   10e51:	25 ff 0f 00 00       	and    $0xfff,%eax
   10e56:	89 45 e0             	mov    %eax,-0x20(%ebp)
    if (start_offset)
   10e59:	83 7d e0 00          	cmpl   $0x0,-0x20(%ebp)
   10e5d:	74 37                	je     10e96 <sys_sbrk+0xbc>
    {
        // 不超过1页，只调整
        if (start_offset + incr <= MEM_PAGE_SIZE)
   10e5f:	8b 55 e0             	mov    -0x20(%ebp),%edx
   10e62:	8b 45 08             	mov    0x8(%ebp),%eax
   10e65:	01 d0                	add    %edx,%eax
   10e67:	3d 00 10 00 00       	cmp    $0x1000,%eax
   10e6c:	7f 0e                	jg     10e7c <sys_sbrk+0xa2>
        {
            task->heap_end = end;
   10e6e:	8b 45 f0             	mov    -0x10(%ebp),%eax
   10e71:	8b 55 e4             	mov    -0x1c(%ebp),%edx
   10e74:	89 50 30             	mov    %edx,0x30(%eax)
            return pre_heap_end;
   10e77:	8b 45 ec             	mov    -0x14(%ebp),%eax
   10e7a:	eb 68                	jmp    10ee4 <sys_sbrk+0x10a>
        }
        else
        {
            // 超过1页，先只调本页的
            uint32_t curr_size = MEM_PAGE_SIZE - start_offset;
   10e7c:	b8 00 10 00 00       	mov    $0x1000,%eax
   10e81:	2b 45 e0             	sub    -0x20(%ebp),%eax
   10e84:	89 45 dc             	mov    %eax,-0x24(%ebp)
            start += curr_size;
   10e87:	8b 45 dc             	mov    -0x24(%ebp),%eax
   10e8a:	01 45 f4             	add    %eax,-0xc(%ebp)
            incr -= curr_size;
   10e8d:	8b 45 08             	mov    0x8(%ebp),%eax
   10e90:	2b 45 dc             	sub    -0x24(%ebp),%eax
   10e93:	89 45 08             	mov    %eax,0x8(%ebp)
        }
    }
    // 处理其余的，起始对齐的页边界的
    if (incr)
   10e96:	83 7d 08 00          	cmpl   $0x0,0x8(%ebp)
   10e9a:	74 3c                	je     10ed8 <sys_sbrk+0xfe>
    {
        uint32_t curr_size = end - start;
   10e9c:	8b 45 e4             	mov    -0x1c(%ebp),%eax
   10e9f:	2b 45 f4             	sub    -0xc(%ebp),%eax
   10ea2:	89 45 d8             	mov    %eax,-0x28(%ebp)
        int err = memory_alloc_page_for(start, curr_size, PTE_P | PTE_U | PTE_W);
   10ea5:	83 ec 04             	sub    $0x4,%esp
   10ea8:	6a 07                	push   $0x7
   10eaa:	ff 75 d8             	pushl  -0x28(%ebp)
   10ead:	ff 75 f4             	pushl  -0xc(%ebp)
   10eb0:	e8 1c fe ff ff       	call   10cd1 <memory_alloc_page_for>
   10eb5:	83 c4 10             	add    $0x10,%esp
   10eb8:	89 45 d4             	mov    %eax,-0x2c(%ebp)
        if (err < 0)
   10ebb:	83 7d d4 00          	cmpl   $0x0,-0x2c(%ebp)
   10ebf:	79 17                	jns    10ed8 <sys_sbrk+0xfe>
        {
            log_printf("sbrk: alloc mem failed.");
   10ec1:	83 ec 0c             	sub    $0xc,%esp
   10ec4:	68 cf 5f 01 00       	push   $0x15fcf
   10ec9:	e8 f8 4e 00 00       	call   15dc6 <log_printf>
   10ece:	83 c4 10             	add    $0x10,%esp
            return (char *)-1;
   10ed1:	b8 ff ff ff ff       	mov    $0xffffffff,%eax
   10ed6:	eb 0c                	jmp    10ee4 <sys_sbrk+0x10a>
        }
    }

    // log_printf("sbrk(%d): end = 0x%x", pre_incr, end);
    task->heap_end = end;
   10ed8:	8b 45 f0             	mov    -0x10(%ebp),%eax
   10edb:	8b 55 e4             	mov    -0x1c(%ebp),%edx
   10ede:	89 50 30             	mov    %edx,0x30(%eax)
    return (char *)pre_heap_end;
   10ee1:	8b 45 ec             	mov    -0x14(%ebp),%eax
   10ee4:	c9                   	leave  
   10ee5:	c3                   	ret    

00010ee6 <sys_print_msg>:

// 系统调用处理函数类型
typedef int (*syscall_handler_t)(uint32_t arg0, uint32_t arg1, uint32_t arg2, uint32_t arg3);

void sys_print_msg(char *fmt, int arg)
{
   10ee6:	55                   	push   %ebp
   10ee7:	89 e5                	mov    %esp,%ebp
   10ee9:	83 ec 08             	sub    $0x8,%esp
    log_printf(fmt, arg);
   10eec:	83 ec 08             	sub    $0x8,%esp
   10eef:	ff 75 0c             	pushl  0xc(%ebp)
   10ef2:	ff 75 08             	pushl  0x8(%ebp)
   10ef5:	e8 cc 4e 00 00       	call   15dc6 <log_printf>
   10efa:	83 c4 10             	add    $0x10,%esp
}
   10efd:	90                   	nop
   10efe:	c9                   	leave  
   10eff:	c3                   	ret    

00010f00 <do_handler_syscall>:

/**
 * 处理系统调用。该函数由系统调用函数调用
 */
void do_handler_syscall(syscall_frame_t *frame)
{
   10f00:	55                   	push   %ebp
   10f01:	89 e5                	mov    %esp,%ebp
   10f03:	53                   	push   %ebx
   10f04:	83 ec 14             	sub    $0x14,%esp
    if (frame->func_id < sizeof(sys_table) / sizeof(sys_table[0]))
   10f07:	8b 45 08             	mov    0x8(%ebp),%eax
   10f0a:	8b 40 3c             	mov    0x3c(%eax),%eax
   10f0d:	83 f8 64             	cmp    $0x64,%eax
   10f10:	77 4e                	ja     10f60 <do_handler_syscall+0x60>
    {
        // 查表取得处理函数，然后调用处理
        syscall_handler_t handler = sys_table[frame->func_id];
   10f12:	8b 45 08             	mov    0x8(%ebp),%eax
   10f15:	8b 40 3c             	mov    0x3c(%eax),%eax
   10f18:	8b 04 85 40 60 01 00 	mov    0x16040(,%eax,4),%eax
   10f1f:	89 45 f4             	mov    %eax,-0xc(%ebp)
        if (handler)
   10f22:	83 7d f4 00          	cmpl   $0x0,-0xc(%ebp)
   10f26:	74 38                	je     10f60 <do_handler_syscall+0x60>
        {
            int ret = handler(frame->arg0, frame->arg1, frame->arg2, frame->arg3);
   10f28:	8b 45 08             	mov    0x8(%ebp),%eax
   10f2b:	8b 40 4c             	mov    0x4c(%eax),%eax
   10f2e:	89 c3                	mov    %eax,%ebx
   10f30:	8b 45 08             	mov    0x8(%ebp),%eax
   10f33:	8b 40 48             	mov    0x48(%eax),%eax
   10f36:	89 c1                	mov    %eax,%ecx
   10f38:	8b 45 08             	mov    0x8(%ebp),%eax
   10f3b:	8b 40 44             	mov    0x44(%eax),%eax
   10f3e:	89 c2                	mov    %eax,%edx
   10f40:	8b 45 08             	mov    0x8(%ebp),%eax
   10f43:	8b 40 40             	mov    0x40(%eax),%eax
   10f46:	53                   	push   %ebx
   10f47:	51                   	push   %ecx
   10f48:	52                   	push   %edx
   10f49:	50                   	push   %eax
   10f4a:	8b 45 f4             	mov    -0xc(%ebp),%eax
   10f4d:	ff d0                	call   *%eax
   10f4f:	83 c4 10             	add    $0x10,%esp
   10f52:	89 45 f0             	mov    %eax,-0x10(%ebp)
            frame->eax = ret; // 设置系统调用的返回值，由eax传递
   10f55:	8b 45 08             	mov    0x8(%ebp),%eax
   10f58:	8b 55 f0             	mov    -0x10(%ebp),%edx
   10f5b:	89 50 30             	mov    %edx,0x30(%eax)
            return;
   10f5e:	eb 30                	jmp    10f90 <do_handler_syscall+0x90>
        }
    }
    // 不支持的系统调用，打印出错信息
    task_t *task = task_current();
   10f60:	e8 1c 06 00 00       	call   11581 <task_current>
   10f65:	89 45 ec             	mov    %eax,-0x14(%ebp)
    log_printf("task: %s, Unknown syscall: %d", task->name, frame->func_id);
   10f68:	8b 45 08             	mov    0x8(%ebp),%eax
   10f6b:	8b 40 3c             	mov    0x3c(%eax),%eax
   10f6e:	8b 55 ec             	mov    -0x14(%ebp),%edx
   10f71:	83 c2 04             	add    $0x4,%edx
   10f74:	83 ec 04             	sub    $0x4,%esp
   10f77:	50                   	push   %eax
   10f78:	52                   	push   %edx
   10f79:	68 d4 61 01 00       	push   $0x161d4
   10f7e:	e8 43 4e 00 00       	call   15dc6 <log_printf>
   10f83:	83 c4 10             	add    $0x10,%esp
    frame->eax = -1; // 设置系统调用的返回值，由eax传递
   10f86:	8b 45 08             	mov    0x8(%ebp),%eax
   10f89:	c7 40 30 ff ff ff ff 	movl   $0xffffffff,0x30(%eax)
}
   10f90:	8b 5d fc             	mov    -0x4(%ebp),%ebx
   10f93:	c9                   	leave  
   10f94:	c3                   	ret    

00010f95 <list_node_init>:
/**
 * 头结点的初始化
 * @param node 待初始化的结果
 */
static inline void list_node_init(list_node_t *node)
{
   10f95:	55                   	push   %ebp
   10f96:	89 e5                	mov    %esp,%ebp
    node->pre = node->next = (list_node_t *)0;
   10f98:	8b 45 08             	mov    0x8(%ebp),%eax
   10f9b:	c7 40 04 00 00 00 00 	movl   $0x0,0x4(%eax)
   10fa2:	8b 45 08             	mov    0x8(%ebp),%eax
   10fa5:	8b 50 04             	mov    0x4(%eax),%edx
   10fa8:	8b 45 08             	mov    0x8(%ebp),%eax
   10fab:	89 10                	mov    %edx,(%eax)
}
   10fad:	90                   	nop
   10fae:	5d                   	pop    %ebp
   10faf:	c3                   	ret    

00010fb0 <list_node_next>:
 * 获取结点的后一结点
 * @param node 查询的结点
 * @return 后继结点
 */
static inline list_node_t *list_node_next(list_node_t *node)
{
   10fb0:	55                   	push   %ebp
   10fb1:	89 e5                	mov    %esp,%ebp
    return node->next;
   10fb3:	8b 45 08             	mov    0x8(%ebp),%eax
   10fb6:	8b 40 04             	mov    0x4(%eax),%eax
}
   10fb9:	5d                   	pop    %ebp
   10fba:	c3                   	ret    

00010fbb <list_count>:
 * 获取链表的结点数量
 * @param list 查询的链表
 * @return 结果的数据
 */
static inline int list_count(list_t *list)
{
   10fbb:	55                   	push   %ebp
   10fbc:	89 e5                	mov    %esp,%ebp
    return list->count;
   10fbe:	8b 45 08             	mov    0x8(%ebp),%eax
   10fc1:	8b 40 08             	mov    0x8(%eax),%eax
}
   10fc4:	5d                   	pop    %ebp
   10fc5:	c3                   	ret    

00010fc6 <list_first>:
 * 获取指定链表的第一个表项
 * @param list 查询的链表
 * @return 第一个表项
 */
static inline list_node_t *list_first(list_t *list)
{
   10fc6:	55                   	push   %ebp
   10fc7:	89 e5                	mov    %esp,%ebp
    return list->first;
   10fc9:	8b 45 08             	mov    0x8(%ebp),%eax
   10fcc:	8b 00                	mov    (%eax),%eax
}
   10fce:	5d                   	pop    %ebp
   10fcf:	c3                   	ret    

00010fd0 <write_cr3>:
{
   10fd0:	55                   	push   %ebp
   10fd1:	89 e5                	mov    %esp,%ebp
    __asm__ __volatile__("mov %[v], %%cr3" ::[v] "r"(v));
   10fd3:	8b 45 08             	mov    0x8(%ebp),%eax
   10fd6:	0f 22 d8             	mov    %eax,%cr3
}
   10fd9:	90                   	nop
   10fda:	5d                   	pop    %ebp
   10fdb:	c3                   	ret    

00010fdc <hlt>:
    uint32_t addr[] = {offset, selector};
    __asm__ __volatile__("ljmpl *(%[a])" ::[a] "r"(addr));
}

static inline void hlt(void)
{
   10fdc:	55                   	push   %ebp
   10fdd:	89 e5                	mov    %esp,%ebp
    __asm__ __volatile__("hlt");
   10fdf:	f4                   	hlt    
}
   10fe0:	90                   	nop
   10fe1:	5d                   	pop    %ebp
   10fe2:	c3                   	ret    

00010fe3 <write_tr>:

// 写tss register 当前运行那个进程
static inline void write_tr(uint32_t tss_selector)
{
   10fe3:	55                   	push   %ebp
   10fe4:	89 e5                	mov    %esp,%ebp
    __asm__ __volatile__("ltr %%ax" ::"a"(tss_selector));
   10fe6:	8b 45 08             	mov    0x8(%ebp),%eax
   10fe9:	0f 00 d8             	ltr    %ax
}
   10fec:	90                   	nop
   10fed:	5d                   	pop    %ebp
   10fee:	c3                   	ret    

00010fef <mmu_set_page_dir>:
{
   10fef:	55                   	push   %ebp
   10ff0:	89 e5                	mov    %esp,%ebp
    write_cr3(paddr);
   10ff2:	ff 75 08             	pushl  0x8(%ebp)
   10ff5:	e8 d6 ff ff ff       	call   10fd0 <write_cr3>
   10ffa:	83 c4 04             	add    $0x4,%esp
}
   10ffd:	90                   	nop
   10ffe:	c9                   	leave  
   10fff:	c3                   	ret    

00011000 <tss_init>:
static task_manager_t task_manager; // 任务管理器
static task_t task_table[TASK_NR];
static mutex_t task_table_mutex;

static int tss_init(task_t *task, int flag, uint32_t entry, uint32_t esp)
{
   11000:	55                   	push   %ebp
   11001:	89 e5                	mov    %esp,%ebp
   11003:	83 ec 28             	sub    $0x28,%esp
    int tss_sel = get_alloc_desc();
   11006:	e8 1d 13 00 00       	call   12328 <get_alloc_desc>
   1100b:	89 45 ec             	mov    %eax,-0x14(%ebp)
    if (tss_sel < 0)
   1100e:	83 7d ec 00          	cmpl   $0x0,-0x14(%ebp)
   11012:	79 1a                	jns    1102e <tss_init+0x2e>
    {
        log_printf("alloc tss failed.\n");
   11014:	83 ec 0c             	sub    $0xc,%esp
   11017:	68 f4 61 01 00       	push   $0x161f4
   1101c:	e8 a5 4d 00 00       	call   15dc6 <log_printf>
   11021:	83 c4 10             	add    $0x10,%esp
        return -1;
   11024:	b8 ff ff ff ff       	mov    $0xffffffff,%eax
   11029:	e9 7b 01 00 00       	jmp    111a9 <tss_init+0x1a9>
    }

    segment_desc_set(tss_sel, (uint32_t)&task->tss, sizeof(tss_t), SEG_P_PRESENT | SEG_DPL0 | SEG_TYPE_TSS); // 设置GDT表项内容
   1102e:	8b 45 08             	mov    0x8(%ebp),%eax
   11031:	05 58 02 00 00       	add    $0x258,%eax
   11036:	68 89 00 00 00       	push   $0x89
   1103b:	6a 68                	push   $0x68
   1103d:	50                   	push   %eax
   1103e:	ff 75 ec             	pushl  -0x14(%ebp)
   11041:	e8 2a 12 00 00       	call   12270 <segment_desc_set>
   11046:	83 c4 10             	add    $0x10,%esp

    // tss段初始化
    kernel_memset(&task->tss, 0, sizeof(tss_t));
   11049:	8b 45 08             	mov    0x8(%ebp),%eax
   1104c:	05 58 02 00 00       	add    $0x258,%eax
   11051:	83 ec 04             	sub    $0x4,%esp
   11054:	6a 68                	push   $0x68
   11056:	6a 00                	push   $0x0
   11058:	50                   	push   %eax
   11059:	e8 6f 47 00 00       	call   157cd <kernel_memset>
   1105e:	83 c4 10             	add    $0x10,%esp

    // 分配内核栈，得到的是物理地址
    uint32_t kernel_stack = memory_alloc_page();
   11061:	e8 b8 fb ff ff       	call   10c1e <memory_alloc_page>
   11066:	89 45 e8             	mov    %eax,-0x18(%ebp)
    if (kernel_stack == 0)
   11069:	83 7d e8 00          	cmpl   $0x0,-0x18(%ebp)
   1106d:	0f 84 0b 01 00 00    	je     1117e <tss_init+0x17e>

    int code_sel, data_sel;
    // code_sel = task_manager.app_code_sel | SEG_CPL3;
    // data_sel = task_manager.app_data_sel | SEG_CPL3;
    // 根据不同的权限选择不同的访问选择子
    if (flag & TASK_FLAG_SYSTEM)
   11073:	8b 45 0c             	mov    0xc(%ebp),%eax
   11076:	83 e0 01             	and    $0x1,%eax
   11079:	85 c0                	test   %eax,%eax
   1107b:	74 10                	je     1108d <tss_init+0x8d>
    {
        code_sel = KERNEL_SELECTOR_CS;
   1107d:	c7 45 f4 08 00 00 00 	movl   $0x8,-0xc(%ebp)
        data_sel = KERNEL_SELECTOR_DS;
   11084:	c7 45 f0 10 00 00 00 	movl   $0x10,-0x10(%ebp)
   1108b:	eb 16                	jmp    110a3 <tss_init+0xa3>
    }
    else
    {
        // 注意加了RP3,不然将产生段保护错误
        code_sel = task_manager.app_code_sel | SEG_CPL3;
   1108d:	a1 b0 d5 01 00       	mov    0x1d5b0,%eax
   11092:	83 c8 03             	or     $0x3,%eax
   11095:	89 45 f4             	mov    %eax,-0xc(%ebp)
        data_sel = task_manager.app_data_sel | SEG_CPL3;
   11098:	a1 b4 d5 01 00       	mov    0x1d5b4,%eax
   1109d:	83 c8 03             	or     $0x3,%eax
   110a0:	89 45 f0             	mov    %eax,-0x10(%ebp)
    }

    task->tss.eip = entry;
   110a3:	8b 45 08             	mov    0x8(%ebp),%eax
   110a6:	8b 55 10             	mov    0x10(%ebp),%edx
   110a9:	89 90 78 02 00 00    	mov    %edx,0x278(%eax)
    // task->tss.esp = task->tss.esp0 = esp;
    task->tss.esp = esp ? esp : kernel_stack + MEM_PAGE_SIZE; // 未指定栈则用内核栈，即运行在特权级0的进程
   110af:	83 7d 14 00          	cmpl   $0x0,0x14(%ebp)
   110b3:	75 0a                	jne    110bf <tss_init+0xbf>
   110b5:	8b 45 e8             	mov    -0x18(%ebp),%eax
   110b8:	05 00 10 00 00       	add    $0x1000,%eax
   110bd:	eb 03                	jmp    110c2 <tss_init+0xc2>
   110bf:	8b 45 14             	mov    0x14(%ebp),%eax
   110c2:	8b 55 08             	mov    0x8(%ebp),%edx
   110c5:	89 82 90 02 00 00    	mov    %eax,0x290(%edx)
    task->tss.esp0 = kernel_stack + MEM_PAGE_SIZE;
   110cb:	8b 45 e8             	mov    -0x18(%ebp),%eax
   110ce:	8d 90 00 10 00 00    	lea    0x1000(%eax),%edx
   110d4:	8b 45 08             	mov    0x8(%ebp),%eax
   110d7:	89 90 5c 02 00 00    	mov    %edx,0x25c(%eax)
    task->tss.ss = data_sel;            // 特权3
   110dd:	8b 55 f0             	mov    -0x10(%ebp),%edx
   110e0:	8b 45 08             	mov    0x8(%ebp),%eax
   110e3:	89 90 a8 02 00 00    	mov    %edx,0x2a8(%eax)
    task->tss.ss0 = KERNEL_SELECTOR_DS; // 特权0
   110e9:	8b 45 08             	mov    0x8(%ebp),%eax
   110ec:	c7 80 60 02 00 00 10 	movl   $0x10,0x260(%eax)
   110f3:	00 00 00 
    task->tss.es = task->tss.ds = task->tss.fs = task->tss.gs = data_sel;
   110f6:	8b 55 f0             	mov    -0x10(%ebp),%edx
   110f9:	8b 45 08             	mov    0x8(%ebp),%eax
   110fc:	89 90 b4 02 00 00    	mov    %edx,0x2b4(%eax)
   11102:	8b 45 08             	mov    0x8(%ebp),%eax
   11105:	8b 90 b4 02 00 00    	mov    0x2b4(%eax),%edx
   1110b:	8b 45 08             	mov    0x8(%ebp),%eax
   1110e:	89 90 b0 02 00 00    	mov    %edx,0x2b0(%eax)
   11114:	8b 45 08             	mov    0x8(%ebp),%eax
   11117:	8b 90 b0 02 00 00    	mov    0x2b0(%eax),%edx
   1111d:	8b 45 08             	mov    0x8(%ebp),%eax
   11120:	89 90 ac 02 00 00    	mov    %edx,0x2ac(%eax)
   11126:	8b 45 08             	mov    0x8(%ebp),%eax
   11129:	8b 90 ac 02 00 00    	mov    0x2ac(%eax),%edx
   1112f:	8b 45 08             	mov    0x8(%ebp),%eax
   11132:	89 90 a0 02 00 00    	mov    %edx,0x2a0(%eax)
    task->tss.cs = code_sel;
   11138:	8b 55 f4             	mov    -0xc(%ebp),%edx
   1113b:	8b 45 08             	mov    0x8(%ebp),%eax
   1113e:	89 90 a4 02 00 00    	mov    %edx,0x2a4(%eax)
    task->tss.eflags = EFLAGS_DEFAULT | EFLAGS_IF;
   11144:	8b 45 08             	mov    0x8(%ebp),%eax
   11147:	c7 80 7c 02 00 00 02 	movl   $0x202,0x27c(%eax)
   1114e:	02 00 00 

    // 页表初始化
    uint32_t page_dir = memory_create_uvm();
   11151:	e8 4a f6 ff ff       	call   107a0 <memory_create_uvm>
   11156:	89 45 e4             	mov    %eax,-0x1c(%ebp)
    if (page_dir == 0)
   11159:	83 7d e4 00          	cmpl   $0x0,-0x1c(%ebp)
   1115d:	74 22                	je     11181 <tss_init+0x181>
    {
        goto tss_init_failed;
    }
    task->tss.cr3 = page_dir;
   1115f:	8b 45 08             	mov    0x8(%ebp),%eax
   11162:	8b 55 e4             	mov    -0x1c(%ebp),%edx
   11165:	89 90 74 02 00 00    	mov    %edx,0x274(%eax)
    task->tss_sel = tss_sel;
   1116b:	8b 45 08             	mov    0x8(%ebp),%eax
   1116e:	8b 55 ec             	mov    -0x14(%ebp),%edx
   11171:	89 90 c0 02 00 00    	mov    %edx,0x2c0(%eax)
    return 0;
   11177:	b8 00 00 00 00       	mov    $0x0,%eax
   1117c:	eb 2b                	jmp    111a9 <tss_init+0x1a9>
        goto tss_init_failed;
   1117e:	90                   	nop
   1117f:	eb 01                	jmp    11182 <tss_init+0x182>
        goto tss_init_failed;
   11181:	90                   	nop
tss_init_failed:
    gdt_free_sel(tss_sel);
   11182:	83 ec 0c             	sub    $0xc,%esp
   11185:	ff 75 ec             	pushl  -0x14(%ebp)
   11188:	e8 62 11 00 00       	call   122ef <gdt_free_sel>
   1118d:	83 c4 10             	add    $0x10,%esp

    if (kernel_stack)
   11190:	83 7d e8 00          	cmpl   $0x0,-0x18(%ebp)
   11194:	74 0e                	je     111a4 <tss_init+0x1a4>
    {
        memory_free_page(kernel_stack);
   11196:	83 ec 0c             	sub    $0xc,%esp
   11199:	ff 75 e8             	pushl  -0x18(%ebp)
   1119c:	e8 97 fa ff ff       	call   10c38 <memory_free_page>
   111a1:	83 c4 10             	add    $0x10,%esp
    }
    return -1;
   111a4:	b8 ff ff ff ff       	mov    $0xffffffff,%eax
}
   111a9:	c9                   	leave  
   111aa:	c3                   	ret    

000111ab <task_init>:

int task_init(task_t *task, const char *name, int flag, uint32_t entry, uint32_t esp)
{
   111ab:	55                   	push   %ebp
   111ac:	89 e5                	mov    %esp,%ebp
   111ae:	83 ec 18             	sub    $0x18,%esp
    ASSERT(task != (task_t *)0);
   111b1:	83 7d 08 00          	cmpl   $0x0,0x8(%ebp)
   111b5:	75 19                	jne    111d0 <task_init+0x25>
   111b7:	68 07 62 01 00       	push   $0x16207
   111bc:	68 8c 63 01 00       	push   $0x1638c
   111c1:	6a 57                	push   $0x57
   111c3:	68 1c 62 01 00       	push   $0x1621c
   111c8:	e8 29 49 00 00       	call   15af6 <panic>
   111cd:	83 c4 10             	add    $0x10,%esp

    int err = tss_init(task, flag, entry, esp);
   111d0:	ff 75 18             	pushl  0x18(%ebp)
   111d3:	ff 75 14             	pushl  0x14(%ebp)
   111d6:	ff 75 10             	pushl  0x10(%ebp)
   111d9:	ff 75 08             	pushl  0x8(%ebp)
   111dc:	e8 1f fe ff ff       	call   11000 <tss_init>
   111e1:	83 c4 10             	add    $0x10,%esp
   111e4:	89 45 f4             	mov    %eax,-0xc(%ebp)
    if (err < 0)
   111e7:	83 7d f4 00          	cmpl   $0x0,-0xc(%ebp)
   111eb:	79 18                	jns    11205 <task_init+0x5a>
    {
        log_printf("init task failed.\n");
   111ed:	83 ec 0c             	sub    $0xc,%esp
   111f0:	68 56 62 01 00       	push   $0x16256
   111f5:	e8 cc 4b 00 00       	call   15dc6 <log_printf>
   111fa:	83 c4 10             	add    $0x10,%esp
        return err;
   111fd:	8b 45 f4             	mov    -0xc(%ebp),%eax
   11200:	e9 e8 00 00 00       	jmp    112ed <task_init+0x142>
    }

    // 任务字段初始化
    kernel_strncpy(task->name, name, TASK_NAME_SIZE);
   11205:	8b 45 08             	mov    0x8(%ebp),%eax
   11208:	83 c0 04             	add    $0x4,%eax
   1120b:	83 ec 04             	sub    $0x4,%esp
   1120e:	6a 20                	push   $0x20
   11210:	ff 75 0c             	pushl  0xc(%ebp)
   11213:	50                   	push   %eax
   11214:	e8 3c 44 00 00       	call   15655 <kernel_strncpy>
   11219:	83 c4 10             	add    $0x10,%esp
    task->state = TASK_CREATED;
   1121c:	8b 45 08             	mov    0x8(%ebp),%eax
   1121f:	c7 00 00 00 00 00    	movl   $0x0,(%eax)
    task->sleep_ticks = 0;
   11225:	8b 45 08             	mov    0x8(%ebp),%eax
   11228:	c7 40 34 00 00 00 00 	movl   $0x0,0x34(%eax)
    task->parent = (task_t *)0;
   1122f:	8b 45 08             	mov    0x8(%ebp),%eax
   11232:	c7 40 28 00 00 00 00 	movl   $0x0,0x28(%eax)
    task->heap_start = 0;
   11239:	8b 45 08             	mov    0x8(%ebp),%eax
   1123c:	c7 40 2c 00 00 00 00 	movl   $0x0,0x2c(%eax)
    task->heap_end = 0;
   11243:	8b 45 08             	mov    0x8(%ebp),%eax
   11246:	c7 40 30 00 00 00 00 	movl   $0x0,0x30(%eax)
    task->time_ticks = TASK_TIME_SLICE_DEFAULT;
   1124d:	8b 45 08             	mov    0x8(%ebp),%eax
   11250:	c7 40 38 0a 00 00 00 	movl   $0xa,0x38(%eax)
    task->slice_ticks = task->time_ticks;
   11257:	8b 45 08             	mov    0x8(%ebp),%eax
   1125a:	8b 50 38             	mov    0x38(%eax),%edx
   1125d:	8b 45 08             	mov    0x8(%ebp),%eax
   11260:	89 50 3c             	mov    %edx,0x3c(%eax)
    list_node_init(&task->all_node);
   11263:	8b 45 08             	mov    0x8(%ebp),%eax
   11266:	83 c0 50             	add    $0x50,%eax
   11269:	83 ec 0c             	sub    $0xc,%esp
   1126c:	50                   	push   %eax
   1126d:	e8 23 fd ff ff       	call   10f95 <list_node_init>
   11272:	83 c4 10             	add    $0x10,%esp
    list_node_init(&task->run_node);
   11275:	8b 45 08             	mov    0x8(%ebp),%eax
   11278:	83 c0 40             	add    $0x40,%eax
   1127b:	83 ec 0c             	sub    $0xc,%esp
   1127e:	50                   	push   %eax
   1127f:	e8 11 fd ff ff       	call   10f95 <list_node_init>
   11284:	83 c4 10             	add    $0x10,%esp
    list_node_init(&task->wait_node);
   11287:	8b 45 08             	mov    0x8(%ebp),%eax
   1128a:	83 c0 48             	add    $0x48,%eax
   1128d:	83 ec 0c             	sub    $0xc,%esp
   11290:	50                   	push   %eax
   11291:	e8 ff fc ff ff       	call   10f95 <list_node_init>
   11296:	83 c4 10             	add    $0x10,%esp

    // 文件相关
    kernel_memset(task->file_table, 0, sizeof(task->file_table));
   11299:	8b 45 08             	mov    0x8(%ebp),%eax
   1129c:	83 c0 58             	add    $0x58,%eax
   1129f:	83 ec 04             	sub    $0x4,%esp
   112a2:	68 00 02 00 00       	push   $0x200
   112a7:	6a 00                	push   $0x0
   112a9:	50                   	push   %eax
   112aa:	e8 1e 45 00 00       	call   157cd <kernel_memset>
   112af:	83 c4 10             	add    $0x10,%esp

    // 插入就绪队列中和所有的任务队列中
    irq_state_t state = irq_enter_protection();
   112b2:	e8 2a 1b 00 00       	call   12de1 <irq_enter_protection>
   112b7:	89 45 f0             	mov    %eax,-0x10(%ebp)
    task->pid = (uint32_t)task; // 使用地址，能唯一
   112ba:	8b 55 08             	mov    0x8(%ebp),%edx
   112bd:	8b 45 08             	mov    0x8(%ebp),%eax
   112c0:	89 50 24             	mov    %edx,0x24(%eax)
    // task_set_ready(task);
    list_insert_last(&task_manager.task_list, &task->all_node); // 插入所有task进队尾
   112c3:	8b 45 08             	mov    0x8(%ebp),%eax
   112c6:	83 c0 50             	add    $0x50,%eax
   112c9:	83 ec 08             	sub    $0x8,%esp
   112cc:	50                   	push   %eax
   112cd:	68 10 d0 01 00       	push   $0x1d010
   112d2:	e8 5f 49 00 00       	call   15c36 <list_insert_last>
   112d7:	83 c4 10             	add    $0x10,%esp
    irq_leave_protection(state);
   112da:	83 ec 0c             	sub    $0xc,%esp
   112dd:	ff 75 f0             	pushl  -0x10(%ebp)
   112e0:	e8 14 1b 00 00       	call   12df9 <irq_leave_protection>
   112e5:	83 c4 10             	add    $0x10,%esp
    return 0;
   112e8:	b8 00 00 00 00       	mov    $0x0,%eax
    //     *(--pesp) = 0;
    //     *(--pesp) = 0;
    //     *(--pesp) = 0;
    //     *(--pesp) = 0;
    // }
}
   112ed:	c9                   	leave  
   112ee:	c3                   	ret    

000112ef <task_switch_from_to>:

void task_switch_from_to(task_t *from, task_t *to)
{
   112ef:	55                   	push   %ebp
   112f0:	89 e5                	mov    %esp,%ebp
   112f2:	83 ec 08             	sub    $0x8,%esp
    switch_to_tss(to->tss_sel);
   112f5:	8b 45 0c             	mov    0xc(%ebp),%eax
   112f8:	8b 80 c0 02 00 00    	mov    0x2c0(%eax),%eax
   112fe:	83 ec 0c             	sub    $0xc,%esp
   11301:	50                   	push   %eax
   11302:	e8 86 11 00 00       	call   1248d <switch_to_tss>
   11307:	83 c4 10             	add    $0x10,%esp
    // simple_switch(&from->stack, to->stack);
}
   1130a:	90                   	nop
   1130b:	c9                   	leave  
   1130c:	c3                   	ret    

0001130d <task_start>:

/**
 * @brief 启动任务
 */
void task_start(task_t *task)
{
   1130d:	55                   	push   %ebp
   1130e:	89 e5                	mov    %esp,%ebp
   11310:	83 ec 18             	sub    $0x18,%esp
    irq_state_t state = irq_enter_protection();
   11313:	e8 c9 1a 00 00       	call   12de1 <irq_enter_protection>
   11318:	89 45 f4             	mov    %eax,-0xc(%ebp)
    task_set_ready(task);
   1131b:	83 ec 0c             	sub    $0xc,%esp
   1131e:	ff 75 08             	pushl  0x8(%ebp)
   11321:	e8 fc 01 00 00       	call   11522 <task_set_ready>
   11326:	83 c4 10             	add    $0x10,%esp
    irq_leave_protection(state);
   11329:	83 ec 0c             	sub    $0xc,%esp
   1132c:	ff 75 f4             	pushl  -0xc(%ebp)
   1132f:	e8 c5 1a 00 00       	call   12df9 <irq_leave_protection>
   11334:	83 c4 10             	add    $0x10,%esp
}
   11337:	90                   	nop
   11338:	c9                   	leave  
   11339:	c3                   	ret    

0001133a <task_first_init>:
 * 不过，考虑到init可能用到newlib库，如果与kernel合并编译，在lds中很难控制将newlib的
 * 代码与init进程的放在一起，有可能与kernel放在了一起。
 * 综上，最好是分离。
 */
void task_first_init(void)
{
   1133a:	55                   	push   %ebp
   1133b:	89 e5                	mov    %esp,%ebp
   1133d:	83 ec 18             	sub    $0x18,%esp
    void first_task_entry(void);
    // 以下获得的是bin文件在内存中的物理地址，起始和结束
    extern uint8_t s_first_task[], e_first_task[];
    // 分配的空间比实际存储的空间要大一些，多余的用于放置栈
    uint32_t copy_size = (uint32_t)(e_first_task - s_first_task);
   11340:	ba bf 47 07 00       	mov    $0x747bf,%edx
   11345:	b8 7c 44 07 00       	mov    $0x7447c,%eax
   1134a:	29 c2                	sub    %eax,%edx
   1134c:	89 d0                	mov    %edx,%eax
   1134e:	89 45 f4             	mov    %eax,-0xc(%ebp)
    uint32_t alloc_size = 10 * MEM_PAGE_SIZE;
   11351:	c7 45 f0 00 a0 00 00 	movl   $0xa000,-0x10(%ebp)
    ASSERT(copy_size < alloc_size);
   11358:	8b 45 f4             	mov    -0xc(%ebp),%eax
   1135b:	3b 45 f0             	cmp    -0x10(%ebp),%eax
   1135e:	72 1c                	jb     1137c <task_first_init+0x42>
   11360:	68 69 62 01 00       	push   $0x16269
   11365:	68 98 63 01 00       	push   $0x16398
   1136a:	68 a3 00 00 00       	push   $0xa3
   1136f:	68 1c 62 01 00       	push   $0x1621c
   11374:	e8 7d 47 00 00       	call   15af6 <panic>
   11379:	83 c4 10             	add    $0x10,%esp

    uint32_t first_start = (uint32_t)first_task_entry;
   1137c:	c7 45 ec 00 00 00 80 	movl   $0x80000000,-0x14(%ebp)
    task_init(&task_manager.first_task, "first task", 0, first_start, first_start + alloc_size);
   11383:	8b 55 ec             	mov    -0x14(%ebp),%edx
   11386:	8b 45 f0             	mov    -0x10(%ebp),%eax
   11389:	01 d0                	add    %edx,%eax
   1138b:	83 ec 0c             	sub    $0xc,%esp
   1138e:	50                   	push   %eax
   1138f:	ff 75 ec             	pushl  -0x14(%ebp)
   11392:	6a 00                	push   $0x0
   11394:	68 80 62 01 00       	push   $0x16280
   11399:	68 28 d0 01 00       	push   $0x1d028
   1139e:	e8 08 fe ff ff       	call   111ab <task_init>
   113a3:	83 c4 20             	add    $0x20,%esp
    task_manager.first_task.heap_start = (uint32_t)e_first_task; // 这里不对
   113a6:	b8 bf 47 07 00       	mov    $0x747bf,%eax
   113ab:	a3 54 d0 01 00       	mov    %eax,0x1d054
    task_manager.first_task.heap_end = task_manager.first_task.heap_start;
   113b0:	a1 54 d0 01 00       	mov    0x1d054,%eax
   113b5:	a3 58 d0 01 00       	mov    %eax,0x1d058

    // 写TR寄存器，指示当前运行的第一个任务
    write_tr(task_manager.first_task.tss_sel);
   113ba:	a1 e8 d2 01 00       	mov    0x1d2e8,%eax
   113bf:	83 ec 0c             	sub    $0xc,%esp
   113c2:	50                   	push   %eax
   113c3:	e8 1b fc ff ff       	call   10fe3 <write_tr>
   113c8:	83 c4 10             	add    $0x10,%esp
    task_manager.curr_task = &task_manager.first_task;
   113cb:	c7 05 00 d0 01 00 28 	movl   $0x1d028,0x1d000
   113d2:	d0 01 00 

    // 切换页表
    mmu_set_page_dir(task_manager.first_task.tss.cr3);
   113d5:	a1 9c d2 01 00       	mov    0x1d29c,%eax
   113da:	83 ec 0c             	sub    $0xc,%esp
   113dd:	50                   	push   %eax
   113de:	e8 0c fc ff ff       	call   10fef <mmu_set_page_dir>
   113e3:	83 c4 10             	add    $0x10,%esp

    // 分配一页内存供代码存放使用，然后将代码复制过去
    memory_alloc_page_for(first_start, alloc_size, PTE_P | PTE_W | PTE_U);
   113e6:	83 ec 04             	sub    $0x4,%esp
   113e9:	6a 07                	push   $0x7
   113eb:	ff 75 f0             	pushl  -0x10(%ebp)
   113ee:	ff 75 ec             	pushl  -0x14(%ebp)
   113f1:	e8 db f8 ff ff       	call   10cd1 <memory_alloc_page_for>
   113f6:	83 c4 10             	add    $0x10,%esp
    kernel_memcpy((void *)first_start, (void *)&s_first_task, copy_size);
   113f9:	8b 55 f4             	mov    -0xc(%ebp),%edx
   113fc:	8b 45 ec             	mov    -0x14(%ebp),%eax
   113ff:	83 ec 04             	sub    $0x4,%esp
   11402:	52                   	push   %edx
   11403:	68 7c 44 07 00       	push   $0x7447c
   11408:	50                   	push   %eax
   11409:	e8 70 43 00 00       	call   1577e <kernel_memcpy>
   1140e:	83 c4 10             	add    $0x10,%esp

    // 启动进程
    task_start(&task_manager.first_task);
   11411:	83 ec 0c             	sub    $0xc,%esp
   11414:	68 28 d0 01 00       	push   $0x1d028
   11419:	e8 ef fe ff ff       	call   1130d <task_start>
   1141e:	83 c4 10             	add    $0x10,%esp

    // 写TR寄存器，指示当前运行的第一个任务
    // write_tr(task_manager.first_task.tss_sel);
}
   11421:	90                   	nop
   11422:	c9                   	leave  
   11423:	c3                   	ret    

00011424 <task_first_task>:

/**
 * @brief 返回初始任务
 */
task_t *task_first_task(void)
{
   11424:	55                   	push   %ebp
   11425:	89 e5                	mov    %esp,%ebp
    return &task_manager.first_task;
   11427:	b8 28 d0 01 00       	mov    $0x1d028,%eax
}
   1142c:	5d                   	pop    %ebp
   1142d:	c3                   	ret    

0001142e <idle_task_entry>:

static void idle_task_entry(void)
{
   1142e:	55                   	push   %ebp
   1142f:	89 e5                	mov    %esp,%ebp
    for (;;)
    {
        hlt();
   11431:	e8 a6 fb ff ff       	call   10fdc <hlt>
   11436:	eb f9                	jmp    11431 <idle_task_entry+0x3>

00011438 <task_manager_init>:
    }
}

void task_manager_init(void)
{
   11438:	55                   	push   %ebp
   11439:	89 e5                	mov    %esp,%ebp
   1143b:	83 ec 18             	sub    $0x18,%esp
    kernel_memset(task_table, 0, sizeof(task_table));
   1143e:	83 ec 04             	sub    $0x4,%esp
   11441:	68 00 62 01 00       	push   $0x16200
   11446:	6a 00                	push   $0x0
   11448:	68 c0 d5 01 00       	push   $0x1d5c0
   1144d:	e8 7b 43 00 00       	call   157cd <kernel_memset>
   11452:	83 c4 10             	add    $0x10,%esp
    mutex_init(&task_table_mutex);
   11455:	83 ec 0c             	sub    $0xc,%esp
   11458:	68 c0 37 03 00       	push   $0x337c0
   1145d:	e8 9d 3c 00 00       	call   150ff <mutex_init>
   11462:	83 c4 10             	add    $0x10,%esp

    int sel = get_alloc_desc();
   11465:	e8 be 0e 00 00       	call   12328 <get_alloc_desc>
   1146a:	89 45 f4             	mov    %eax,-0xc(%ebp)
    segment_desc_set(sel, 0x00000000, 0xFFFFFFFF,
   1146d:	68 f2 40 00 00       	push   $0x40f2
   11472:	6a ff                	push   $0xffffffff
   11474:	6a 00                	push   $0x0
   11476:	ff 75 f4             	pushl  -0xc(%ebp)
   11479:	e8 f2 0d 00 00       	call   12270 <segment_desc_set>
   1147e:	83 c4 10             	add    $0x10,%esp
                     SEG_P_PRESENT | SEG_DPL3 | SEG_S_NORMAL |
                         SEG_TYPE_DATA | SEG_TYPE_RW | SEG_D);
    task_manager.app_data_sel = sel;
   11481:	8b 45 f4             	mov    -0xc(%ebp),%eax
   11484:	a3 b4 d5 01 00       	mov    %eax,0x1d5b4

    sel = get_alloc_desc();
   11489:	e8 9a 0e 00 00       	call   12328 <get_alloc_desc>
   1148e:	89 45 f4             	mov    %eax,-0xc(%ebp)
    segment_desc_set(sel, 0x00000000, 0xFFFFFFFF,
   11491:	68 fa 40 00 00       	push   $0x40fa
   11496:	6a ff                	push   $0xffffffff
   11498:	6a 00                	push   $0x0
   1149a:	ff 75 f4             	pushl  -0xc(%ebp)
   1149d:	e8 ce 0d 00 00       	call   12270 <segment_desc_set>
   114a2:	83 c4 10             	add    $0x10,%esp
                     SEG_P_PRESENT | SEG_DPL3 | SEG_S_NORMAL |
                         SEG_TYPE_CODE | SEG_TYPE_RW | SEG_D);
    task_manager.app_code_sel = sel;
   114a5:	8b 45 f4             	mov    -0xc(%ebp),%eax
   114a8:	a3 b0 d5 01 00       	mov    %eax,0x1d5b0

    // 各队列初始化
    list_init(&task_manager.ready_list);
   114ad:	83 ec 0c             	sub    $0xc,%esp
   114b0:	68 04 d0 01 00       	push   $0x1d004
   114b5:	e8 f8 46 00 00       	call   15bb2 <list_init>
   114ba:	83 c4 10             	add    $0x10,%esp
    list_init(&task_manager.task_list);
   114bd:	83 ec 0c             	sub    $0xc,%esp
   114c0:	68 10 d0 01 00       	push   $0x1d010
   114c5:	e8 e8 46 00 00       	call   15bb2 <list_init>
   114ca:	83 c4 10             	add    $0x10,%esp
    list_init(&task_manager.sleep_list);
   114cd:	83 ec 0c             	sub    $0xc,%esp
   114d0:	68 1c d0 01 00       	push   $0x1d01c
   114d5:	e8 d8 46 00 00       	call   15bb2 <list_init>
   114da:	83 c4 10             	add    $0x10,%esp
    task_manager.curr_task = (task_t *)0;
   114dd:	c7 05 00 d0 01 00 00 	movl   $0x0,0x1d000
   114e4:	00 00 00 

    task_init(&task_manager.idle_task, "idle_task", TASK_FLAG_SYSTEM, (uint32_t)idle_task_entry, (uint32_t)idle_task_stack + 1024);
   114e7:	b8 00 c0 01 00       	mov    $0x1c000,%eax
   114ec:	05 00 04 00 00       	add    $0x400,%eax
   114f1:	ba 2e 14 01 00       	mov    $0x1142e,%edx
   114f6:	83 ec 0c             	sub    $0xc,%esp
   114f9:	50                   	push   %eax
   114fa:	52                   	push   %edx
   114fb:	6a 01                	push   $0x1
   114fd:	68 8b 62 01 00       	push   $0x1628b
   11502:	68 ec d2 01 00       	push   $0x1d2ec
   11507:	e8 9f fc ff ff       	call   111ab <task_init>
   1150c:	83 c4 20             	add    $0x20,%esp
    task_start(&task_manager.idle_task);
   1150f:	83 ec 0c             	sub    $0xc,%esp
   11512:	68 ec d2 01 00       	push   $0x1d2ec
   11517:	e8 f1 fd ff ff       	call   1130d <task_start>
   1151c:	83 c4 10             	add    $0x10,%esp
}
   1151f:	90                   	nop
   11520:	c9                   	leave  
   11521:	c3                   	ret    

00011522 <task_set_ready>:

/**
 * @brief 将任务插入就绪队列
 */
void task_set_ready(task_t *task)
{
   11522:	55                   	push   %ebp
   11523:	89 e5                	mov    %esp,%ebp
   11525:	83 ec 08             	sub    $0x8,%esp
    if (task == &task_manager.idle_task)
   11528:	81 7d 08 ec d2 01 00 	cmpl   $0x1d2ec,0x8(%ebp)
   1152f:	74 22                	je     11553 <task_set_ready+0x31>
    {
        return;
    }
    list_insert_last(&task_manager.ready_list, &task->run_node);
   11531:	8b 45 08             	mov    0x8(%ebp),%eax
   11534:	83 c0 40             	add    $0x40,%eax
   11537:	83 ec 08             	sub    $0x8,%esp
   1153a:	50                   	push   %eax
   1153b:	68 04 d0 01 00       	push   $0x1d004
   11540:	e8 f1 46 00 00       	call   15c36 <list_insert_last>
   11545:	83 c4 10             	add    $0x10,%esp
    task->state = TASK_READY;
   11548:	8b 45 08             	mov    0x8(%ebp),%eax
   1154b:	c7 00 03 00 00 00    	movl   $0x3,(%eax)
   11551:	eb 01                	jmp    11554 <task_set_ready+0x32>
        return;
   11553:	90                   	nop
}
   11554:	c9                   	leave  
   11555:	c3                   	ret    

00011556 <task_set_block>:

/**
 * @brief 将任务从就绪队列移除
 */
void task_set_block(task_t *task)
{
   11556:	55                   	push   %ebp
   11557:	89 e5                	mov    %esp,%ebp
   11559:	83 ec 08             	sub    $0x8,%esp
    if (task == &task_manager.idle_task)
   1155c:	81 7d 08 ec d2 01 00 	cmpl   $0x1d2ec,0x8(%ebp)
   11563:	74 19                	je     1157e <task_set_block+0x28>
    {
        return;
    }
    list_remove(&task_manager.ready_list, &task->run_node);
   11565:	8b 45 08             	mov    0x8(%ebp),%eax
   11568:	83 c0 40             	add    $0x40,%eax
   1156b:	83 ec 08             	sub    $0x8,%esp
   1156e:	50                   	push   %eax
   1156f:	68 04 d0 01 00       	push   $0x1d004
   11574:	e8 99 47 00 00       	call   15d12 <list_remove>
   11579:	83 c4 10             	add    $0x10,%esp
   1157c:	eb 01                	jmp    1157f <task_set_block+0x29>
        return;
   1157e:	90                   	nop
}
   1157f:	c9                   	leave  
   11580:	c3                   	ret    

00011581 <task_current>:

/**
 * @brief 获取当前正在运行的任务
 */
task_t *task_current(void)
{
   11581:	55                   	push   %ebp
   11582:	89 e5                	mov    %esp,%ebp
    return task_manager.curr_task;
   11584:	a1 00 d0 01 00       	mov    0x1d000,%eax
}
   11589:	5d                   	pop    %ebp
   1158a:	c3                   	ret    

0001158b <sys_sched_yield>:

int sys_sched_yield(void)
{
   1158b:	55                   	push   %ebp
   1158c:	89 e5                	mov    %esp,%ebp
   1158e:	83 ec 18             	sub    $0x18,%esp
    irq_state_t state = irq_enter_protection();
   11591:	e8 4b 18 00 00       	call   12de1 <irq_enter_protection>
   11596:	89 45 f4             	mov    %eax,-0xc(%ebp)
    if (list_count(&task_manager.ready_list) > 1)
   11599:	83 ec 0c             	sub    $0xc,%esp
   1159c:	68 04 d0 01 00       	push   $0x1d004
   115a1:	e8 15 fa ff ff       	call   10fbb <list_count>
   115a6:	83 c4 10             	add    $0x10,%esp
   115a9:	83 f8 01             	cmp    $0x1,%eax
   115ac:	7e 29                	jle    115d7 <sys_sched_yield+0x4c>
    {
        task_t *curr_task = task_current();
   115ae:	e8 ce ff ff ff       	call   11581 <task_current>
   115b3:	89 45 f0             	mov    %eax,-0x10(%ebp)

        // 如果队列中还有其它任务，则将当前任务移入到队列尾部
        task_set_block(curr_task);
   115b6:	83 ec 0c             	sub    $0xc,%esp
   115b9:	ff 75 f0             	pushl  -0x10(%ebp)
   115bc:	e8 95 ff ff ff       	call   11556 <task_set_block>
   115c1:	83 c4 10             	add    $0x10,%esp
        task_set_ready(curr_task);
   115c4:	83 ec 0c             	sub    $0xc,%esp
   115c7:	ff 75 f0             	pushl  -0x10(%ebp)
   115ca:	e8 53 ff ff ff       	call   11522 <task_set_ready>
   115cf:	83 c4 10             	add    $0x10,%esp

        // 切换至下一个任务，在切换完成前要保护，不然可能下一任务
        // 由于某些原因运行后阻塞或删除，再回到这里切换将发生问题
        task_dispatch();
   115d2:	e8 58 00 00 00       	call   1162f <task_dispatch>
    }
    irq_leave_protection(state);
   115d7:	83 ec 0c             	sub    $0xc,%esp
   115da:	ff 75 f4             	pushl  -0xc(%ebp)
   115dd:	e8 17 18 00 00       	call   12df9 <irq_leave_protection>
   115e2:	83 c4 10             	add    $0x10,%esp
    return 0;
   115e5:	b8 00 00 00 00       	mov    $0x0,%eax
}
   115ea:	c9                   	leave  
   115eb:	c3                   	ret    

000115ec <task_next_run>:

/**
 * @brief 获取下一将要运行的任务
 */
static task_t *task_next_run(void)
{
   115ec:	55                   	push   %ebp
   115ed:	89 e5                	mov    %esp,%ebp
   115ef:	83 ec 10             	sub    $0x10,%esp
    if (list_count(&task_manager.ready_list) == 0)
   115f2:	68 04 d0 01 00       	push   $0x1d004
   115f7:	e8 bf f9 ff ff       	call   10fbb <list_count>
   115fc:	83 c4 04             	add    $0x4,%esp
   115ff:	85 c0                	test   %eax,%eax
   11601:	75 07                	jne    1160a <task_next_run+0x1e>
    {
        return &task_manager.idle_task;
   11603:	b8 ec d2 01 00       	mov    $0x1d2ec,%eax
   11608:	eb 23                	jmp    1162d <task_next_run+0x41>
    }

    // 普通任务
    list_node_t *task_node = list_first(&task_manager.ready_list);
   1160a:	68 04 d0 01 00       	push   $0x1d004
   1160f:	e8 b2 f9 ff ff       	call   10fc6 <list_first>
   11614:	83 c4 04             	add    $0x4,%esp
   11617:	89 45 fc             	mov    %eax,-0x4(%ebp)
    return list_node_parent(task_node, task_t, run_node);
   1161a:	83 7d fc 00          	cmpl   $0x0,-0x4(%ebp)
   1161e:	74 08                	je     11628 <task_next_run+0x3c>
   11620:	8b 45 fc             	mov    -0x4(%ebp),%eax
   11623:	83 e8 40             	sub    $0x40,%eax
   11626:	eb 05                	jmp    1162d <task_next_run+0x41>
   11628:	b8 00 00 00 00       	mov    $0x0,%eax
}
   1162d:	c9                   	leave  
   1162e:	c3                   	ret    

0001162f <task_dispatch>:

/**
 * @brief 进行一次任务调度
 */
void task_dispatch(void)
{
   1162f:	55                   	push   %ebp
   11630:	89 e5                	mov    %esp,%ebp
   11632:	83 ec 18             	sub    $0x18,%esp
    irq_state_t state = irq_enter_protection();
   11635:	e8 a7 17 00 00       	call   12de1 <irq_enter_protection>
   1163a:	89 45 f4             	mov    %eax,-0xc(%ebp)
    task_t *to = task_next_run();
   1163d:	e8 aa ff ff ff       	call   115ec <task_next_run>
   11642:	89 45 f0             	mov    %eax,-0x10(%ebp)
    if (to != task_manager.curr_task)
   11645:	a1 00 d0 01 00       	mov    0x1d000,%eax
   1164a:	39 45 f0             	cmp    %eax,-0x10(%ebp)
   1164d:	74 2a                	je     11679 <task_dispatch+0x4a>
    {
        task_t *from = task_manager.curr_task;
   1164f:	a1 00 d0 01 00       	mov    0x1d000,%eax
   11654:	89 45 ec             	mov    %eax,-0x14(%ebp)

        task_manager.curr_task = to;
   11657:	8b 45 f0             	mov    -0x10(%ebp),%eax
   1165a:	a3 00 d0 01 00       	mov    %eax,0x1d000
        to->state = TASK_RUNNING;
   1165f:	8b 45 f0             	mov    -0x10(%ebp),%eax
   11662:	c7 00 01 00 00 00    	movl   $0x1,(%eax)
        task_switch_from_to(from, to);
   11668:	83 ec 08             	sub    $0x8,%esp
   1166b:	ff 75 f0             	pushl  -0x10(%ebp)
   1166e:	ff 75 ec             	pushl  -0x14(%ebp)
   11671:	e8 79 fc ff ff       	call   112ef <task_switch_from_to>
   11676:	83 c4 10             	add    $0x10,%esp
    }
    irq_leave_protection(state);
   11679:	83 ec 0c             	sub    $0xc,%esp
   1167c:	ff 75 f4             	pushl  -0xc(%ebp)
   1167f:	e8 75 17 00 00       	call   12df9 <irq_leave_protection>
   11684:	83 c4 10             	add    $0x10,%esp
}
   11687:	90                   	nop
   11688:	c9                   	leave  
   11689:	c3                   	ret    

0001168a <task_time_tick>:
/**
 * @brief 时间处理
 * 该函数在中断处理函数中调用
 */
void task_time_tick(void)
{
   1168a:	55                   	push   %ebp
   1168b:	89 e5                	mov    %esp,%ebp
   1168d:	83 ec 28             	sub    $0x28,%esp
    task_t *curr_task = task_current();
   11690:	e8 ec fe ff ff       	call   11581 <task_current>
   11695:	89 45 f0             	mov    %eax,-0x10(%ebp)
    irq_state_t state = irq_enter_protection();
   11698:	e8 44 17 00 00       	call   12de1 <irq_enter_protection>
   1169d:	89 45 ec             	mov    %eax,-0x14(%ebp)
    if (--curr_task->slice_ticks == 0)
   116a0:	8b 45 f0             	mov    -0x10(%ebp),%eax
   116a3:	8b 40 3c             	mov    0x3c(%eax),%eax
   116a6:	8d 50 ff             	lea    -0x1(%eax),%edx
   116a9:	8b 45 f0             	mov    -0x10(%ebp),%eax
   116ac:	89 50 3c             	mov    %edx,0x3c(%eax)
   116af:	8b 45 f0             	mov    -0x10(%ebp),%eax
   116b2:	8b 40 3c             	mov    0x3c(%eax),%eax
   116b5:	85 c0                	test   %eax,%eax
   116b7:	75 28                	jne    116e1 <task_time_tick+0x57>
    {
        // 时间片用完，重新加载时间片
        // 对于空闲任务，此处减未用
        curr_task->slice_ticks = curr_task->time_ticks;
   116b9:	8b 45 f0             	mov    -0x10(%ebp),%eax
   116bc:	8b 50 38             	mov    0x38(%eax),%edx
   116bf:	8b 45 f0             	mov    -0x10(%ebp),%eax
   116c2:	89 50 3c             	mov    %edx,0x3c(%eax)

        // 调整队列的位置到尾部，不用直接操作队列
        task_set_block(curr_task);
   116c5:	83 ec 0c             	sub    $0xc,%esp
   116c8:	ff 75 f0             	pushl  -0x10(%ebp)
   116cb:	e8 86 fe ff ff       	call   11556 <task_set_block>
   116d0:	83 c4 10             	add    $0x10,%esp
        task_set_ready(curr_task);
   116d3:	83 ec 0c             	sub    $0xc,%esp
   116d6:	ff 75 f0             	pushl  -0x10(%ebp)
   116d9:	e8 44 fe ff ff       	call   11522 <task_set_ready>
   116de:	83 c4 10             	add    $0x10,%esp
    }

    // 睡眠处理
    list_node_t *curr = list_first(&task_manager.sleep_list);
   116e1:	83 ec 0c             	sub    $0xc,%esp
   116e4:	68 1c d0 01 00       	push   $0x1d01c
   116e9:	e8 d8 f8 ff ff       	call   10fc6 <list_first>
   116ee:	83 c4 10             	add    $0x10,%esp
   116f1:	89 45 f4             	mov    %eax,-0xc(%ebp)
    while (curr)
   116f4:	eb 62                	jmp    11758 <task_time_tick+0xce>
    {
        list_node_t *next = list_node_next(curr);
   116f6:	83 ec 0c             	sub    $0xc,%esp
   116f9:	ff 75 f4             	pushl  -0xc(%ebp)
   116fc:	e8 af f8 ff ff       	call   10fb0 <list_node_next>
   11701:	83 c4 10             	add    $0x10,%esp
   11704:	89 45 e8             	mov    %eax,-0x18(%ebp)

        task_t *task = list_node_parent(curr, task_t, run_node);
   11707:	83 7d f4 00          	cmpl   $0x0,-0xc(%ebp)
   1170b:	74 08                	je     11715 <task_time_tick+0x8b>
   1170d:	8b 45 f4             	mov    -0xc(%ebp),%eax
   11710:	83 e8 40             	sub    $0x40,%eax
   11713:	eb 05                	jmp    1171a <task_time_tick+0x90>
   11715:	b8 00 00 00 00       	mov    $0x0,%eax
   1171a:	89 45 e4             	mov    %eax,-0x1c(%ebp)
        if (--task->sleep_ticks == 0)
   1171d:	8b 45 e4             	mov    -0x1c(%ebp),%eax
   11720:	8b 40 34             	mov    0x34(%eax),%eax
   11723:	8d 50 ff             	lea    -0x1(%eax),%edx
   11726:	8b 45 e4             	mov    -0x1c(%ebp),%eax
   11729:	89 50 34             	mov    %edx,0x34(%eax)
   1172c:	8b 45 e4             	mov    -0x1c(%ebp),%eax
   1172f:	8b 40 34             	mov    0x34(%eax),%eax
   11732:	85 c0                	test   %eax,%eax
   11734:	75 1c                	jne    11752 <task_time_tick+0xc8>
        {
            // 延时时间到达，从睡眠队列中移除，送至就绪队列
            task_set_wakeup(task);
   11736:	83 ec 0c             	sub    $0xc,%esp
   11739:	ff 75 e4             	pushl  -0x1c(%ebp)
   1173c:	e8 6d 00 00 00       	call   117ae <task_set_wakeup>
   11741:	83 c4 10             	add    $0x10,%esp
            task_set_ready(task);
   11744:	83 ec 0c             	sub    $0xc,%esp
   11747:	ff 75 e4             	pushl  -0x1c(%ebp)
   1174a:	e8 d3 fd ff ff       	call   11522 <task_set_ready>
   1174f:	83 c4 10             	add    $0x10,%esp
        }
        curr = next;
   11752:	8b 45 e8             	mov    -0x18(%ebp),%eax
   11755:	89 45 f4             	mov    %eax,-0xc(%ebp)
    while (curr)
   11758:	83 7d f4 00          	cmpl   $0x0,-0xc(%ebp)
   1175c:	75 98                	jne    116f6 <task_time_tick+0x6c>
    }
    task_dispatch();
   1175e:	e8 cc fe ff ff       	call   1162f <task_dispatch>
    irq_leave_protection(state);
   11763:	83 ec 0c             	sub    $0xc,%esp
   11766:	ff 75 ec             	pushl  -0x14(%ebp)
   11769:	e8 8b 16 00 00       	call   12df9 <irq_leave_protection>
   1176e:	83 c4 10             	add    $0x10,%esp
}
   11771:	90                   	nop
   11772:	c9                   	leave  
   11773:	c3                   	ret    

00011774 <task_set_sleep>:

/**
 * @brief 将任务加入睡眠状态
 */
void task_set_sleep(task_t *task, uint32_t ticks)
{
   11774:	55                   	push   %ebp
   11775:	89 e5                	mov    %esp,%ebp
   11777:	83 ec 08             	sub    $0x8,%esp
    if (ticks <= 0)
   1177a:	83 7d 0c 00          	cmpl   $0x0,0xc(%ebp)
   1177e:	74 2b                	je     117ab <task_set_sleep+0x37>
    {
        return;
    }

    task->sleep_ticks = ticks;
   11780:	8b 55 0c             	mov    0xc(%ebp),%edx
   11783:	8b 45 08             	mov    0x8(%ebp),%eax
   11786:	89 50 34             	mov    %edx,0x34(%eax)
    task->state = TASK_SLEEP;
   11789:	8b 45 08             	mov    0x8(%ebp),%eax
   1178c:	c7 00 02 00 00 00    	movl   $0x2,(%eax)
    list_insert_last(&task_manager.sleep_list, &task->run_node);
   11792:	8b 45 08             	mov    0x8(%ebp),%eax
   11795:	83 c0 40             	add    $0x40,%eax
   11798:	83 ec 08             	sub    $0x8,%esp
   1179b:	50                   	push   %eax
   1179c:	68 1c d0 01 00       	push   $0x1d01c
   117a1:	e8 90 44 00 00       	call   15c36 <list_insert_last>
   117a6:	83 c4 10             	add    $0x10,%esp
   117a9:	eb 01                	jmp    117ac <task_set_sleep+0x38>
        return;
   117ab:	90                   	nop
}
   117ac:	c9                   	leave  
   117ad:	c3                   	ret    

000117ae <task_set_wakeup>:
 * @brief 将任务从延时队列移除
 *
 * @param task
 */
void task_set_wakeup(task_t *task)
{
   117ae:	55                   	push   %ebp
   117af:	89 e5                	mov    %esp,%ebp
   117b1:	83 ec 08             	sub    $0x8,%esp
    list_remove(&task_manager.sleep_list, &task->run_node);
   117b4:	8b 45 08             	mov    0x8(%ebp),%eax
   117b7:	83 c0 40             	add    $0x40,%eax
   117ba:	83 ec 08             	sub    $0x8,%esp
   117bd:	50                   	push   %eax
   117be:	68 1c d0 01 00       	push   $0x1d01c
   117c3:	e8 4a 45 00 00       	call   15d12 <list_remove>
   117c8:	83 c4 10             	add    $0x10,%esp
}
   117cb:	90                   	nop
   117cc:	c9                   	leave  
   117cd:	c3                   	ret    

000117ce <sys_msleep>:
 * @brief 任务进入睡眠状态
 *
 * @param ms
 */
void sys_msleep(uint32_t ms)
{
   117ce:	55                   	push   %ebp
   117cf:	89 e5                	mov    %esp,%ebp
   117d1:	83 ec 18             	sub    $0x18,%esp
    // 至少延时1个tick
    if (ms < OS_TICK_MS)
   117d4:	83 7d 08 09          	cmpl   $0x9,0x8(%ebp)
   117d8:	77 07                	ja     117e1 <sys_msleep+0x13>
    {
        ms = OS_TICK_MS;
   117da:	c7 45 08 0a 00 00 00 	movl   $0xa,0x8(%ebp)
    }

    irq_state_t state = irq_enter_protection();
   117e1:	e8 fb 15 00 00       	call   12de1 <irq_enter_protection>
   117e6:	89 45 f4             	mov    %eax,-0xc(%ebp)

    // 从就绪队列移除，加入睡眠队列
    task_set_block(task_manager.curr_task);
   117e9:	a1 00 d0 01 00       	mov    0x1d000,%eax
   117ee:	83 ec 0c             	sub    $0xc,%esp
   117f1:	50                   	push   %eax
   117f2:	e8 5f fd ff ff       	call   11556 <task_set_block>
   117f7:	83 c4 10             	add    $0x10,%esp
    task_set_sleep(task_manager.curr_task, (ms + (OS_TICK_MS - 1)) / OS_TICK_MS);
   117fa:	8b 45 08             	mov    0x8(%ebp),%eax
   117fd:	83 c0 09             	add    $0x9,%eax
   11800:	ba cd cc cc cc       	mov    $0xcccccccd,%edx
   11805:	f7 e2                	mul    %edx
   11807:	c1 ea 03             	shr    $0x3,%edx
   1180a:	a1 00 d0 01 00       	mov    0x1d000,%eax
   1180f:	83 ec 08             	sub    $0x8,%esp
   11812:	52                   	push   %edx
   11813:	50                   	push   %eax
   11814:	e8 5b ff ff ff       	call   11774 <task_set_sleep>
   11819:	83 c4 10             	add    $0x10,%esp

    // 进行一次调度
    task_dispatch();
   1181c:	e8 0e fe ff ff       	call   1162f <task_dispatch>

    irq_leave_protection(state);
   11821:	83 ec 0c             	sub    $0xc,%esp
   11824:	ff 75 f4             	pushl  -0xc(%ebp)
   11827:	e8 cd 15 00 00       	call   12df9 <irq_leave_protection>
   1182c:	83 c4 10             	add    $0x10,%esp
}
   1182f:	90                   	nop
   11830:	c9                   	leave  
   11831:	c3                   	ret    

00011832 <alloc_task>:

/**
 * @brief 分配一个任务结构
 */
static task_t *alloc_task(void)
{
   11832:	55                   	push   %ebp
   11833:	89 e5                	mov    %esp,%ebp
   11835:	83 ec 18             	sub    $0x18,%esp
    task_t *task = (task_t *)0;
   11838:	c7 45 f4 00 00 00 00 	movl   $0x0,-0xc(%ebp)

    mutex_lock(&task_table_mutex);
   1183f:	83 ec 0c             	sub    $0xc,%esp
   11842:	68 c0 37 03 00       	push   $0x337c0
   11847:	e8 e1 38 00 00       	call   1512d <mutex_lock>
   1184c:	83 c4 10             	add    $0x10,%esp
    for (int i = 0; i < TASK_NR; i++)
   1184f:	c7 45 f0 00 00 00 00 	movl   $0x0,-0x10(%ebp)
   11856:	eb 28                	jmp    11880 <alloc_task+0x4e>
    {
        task_t *curr = task_table + i;
   11858:	8b 45 f0             	mov    -0x10(%ebp),%eax
   1185b:	69 c0 c4 02 00 00    	imul   $0x2c4,%eax,%eax
   11861:	05 c0 d5 01 00       	add    $0x1d5c0,%eax
   11866:	89 45 ec             	mov    %eax,-0x14(%ebp)
        if (curr->name[0] == '\0')
   11869:	8b 45 ec             	mov    -0x14(%ebp),%eax
   1186c:	0f b6 40 04          	movzbl 0x4(%eax),%eax
   11870:	84 c0                	test   %al,%al
   11872:	75 08                	jne    1187c <alloc_task+0x4a>
        {
            task = curr;
   11874:	8b 45 ec             	mov    -0x14(%ebp),%eax
   11877:	89 45 f4             	mov    %eax,-0xc(%ebp)
            break;
   1187a:	eb 0a                	jmp    11886 <alloc_task+0x54>
    for (int i = 0; i < TASK_NR; i++)
   1187c:	83 45 f0 01          	addl   $0x1,-0x10(%ebp)
   11880:	83 7d f0 7f          	cmpl   $0x7f,-0x10(%ebp)
   11884:	7e d2                	jle    11858 <alloc_task+0x26>
        }
    }
    mutex_unlock(&task_table_mutex);
   11886:	83 ec 0c             	sub    $0xc,%esp
   11889:	68 c0 37 03 00       	push   $0x337c0
   1188e:	e8 2e 39 00 00       	call   151c1 <mutex_unlock>
   11893:	83 c4 10             	add    $0x10,%esp

    return task;
   11896:	8b 45 f4             	mov    -0xc(%ebp),%eax
}
   11899:	c9                   	leave  
   1189a:	c3                   	ret    

0001189b <free_task>:

/**
 * @brief 释放任务结构
 */
static void free_task(task_t *task)
{
   1189b:	55                   	push   %ebp
   1189c:	89 e5                	mov    %esp,%ebp
   1189e:	83 ec 08             	sub    $0x8,%esp
    mutex_lock(&task_table_mutex);
   118a1:	83 ec 0c             	sub    $0xc,%esp
   118a4:	68 c0 37 03 00       	push   $0x337c0
   118a9:	e8 7f 38 00 00       	call   1512d <mutex_lock>
   118ae:	83 c4 10             	add    $0x10,%esp
    task->name[0] = '\0';
   118b1:	8b 45 08             	mov    0x8(%ebp),%eax
   118b4:	c6 40 04 00          	movb   $0x0,0x4(%eax)
    mutex_unlock(&task_table_mutex);
   118b8:	83 ec 0c             	sub    $0xc,%esp
   118bb:	68 c0 37 03 00       	push   $0x337c0
   118c0:	e8 fc 38 00 00       	call   151c1 <mutex_unlock>
   118c5:	83 c4 10             	add    $0x10,%esp
}
   118c8:	90                   	nop
   118c9:	c9                   	leave  
   118ca:	c3                   	ret    

000118cb <sys_getpid>:

/**
 * 返回任务的pid
 */
int sys_getpid(void)
{
   118cb:	55                   	push   %ebp
   118cc:	89 e5                	mov    %esp,%ebp
   118ce:	83 ec 10             	sub    $0x10,%esp
    task_t *curr_task = task_current();
   118d1:	e8 ab fc ff ff       	call   11581 <task_current>
   118d6:	89 45 fc             	mov    %eax,-0x4(%ebp)
    return curr_task->pid;
   118d9:	8b 45 fc             	mov    -0x4(%ebp),%eax
   118dc:	8b 40 24             	mov    0x24(%eax),%eax
}
   118df:	c9                   	leave  
   118e0:	c3                   	ret    

000118e1 <task_uninit>:

/**
 * @brief 任务初始时分配的各项资源
 */
void task_uninit(task_t *task)
{
   118e1:	55                   	push   %ebp
   118e2:	89 e5                	mov    %esp,%ebp
   118e4:	83 ec 08             	sub    $0x8,%esp
    if (task->tss_sel)
   118e7:	8b 45 08             	mov    0x8(%ebp),%eax
   118ea:	8b 80 c0 02 00 00    	mov    0x2c0(%eax),%eax
   118f0:	85 c0                	test   %eax,%eax
   118f2:	74 15                	je     11909 <task_uninit+0x28>
    {
        gdt_free_sel(task->tss_sel);
   118f4:	8b 45 08             	mov    0x8(%ebp),%eax
   118f7:	8b 80 c0 02 00 00    	mov    0x2c0(%eax),%eax
   118fd:	83 ec 0c             	sub    $0xc,%esp
   11900:	50                   	push   %eax
   11901:	e8 e9 09 00 00       	call   122ef <gdt_free_sel>
   11906:	83 c4 10             	add    $0x10,%esp
    }

    if (task->tss.esp0)
   11909:	8b 45 08             	mov    0x8(%ebp),%eax
   1190c:	8b 80 5c 02 00 00    	mov    0x25c(%eax),%eax
   11912:	85 c0                	test   %eax,%eax
   11914:	74 1a                	je     11930 <task_uninit+0x4f>
    {
        memory_free_page(task->tss.esp0 - MEM_PAGE_SIZE);
   11916:	8b 45 08             	mov    0x8(%ebp),%eax
   11919:	8b 80 5c 02 00 00    	mov    0x25c(%eax),%eax
   1191f:	2d 00 10 00 00       	sub    $0x1000,%eax
   11924:	83 ec 0c             	sub    $0xc,%esp
   11927:	50                   	push   %eax
   11928:	e8 0b f3 ff ff       	call   10c38 <memory_free_page>
   1192d:	83 c4 10             	add    $0x10,%esp
    }

    if (task->tss.cr3)
   11930:	8b 45 08             	mov    0x8(%ebp),%eax
   11933:	8b 80 74 02 00 00    	mov    0x274(%eax),%eax
   11939:	85 c0                	test   %eax,%eax
   1193b:	74 15                	je     11952 <task_uninit+0x71>
    {
        memory_destroy_uvm(task->tss.cr3);
   1193d:	8b 45 08             	mov    0x8(%ebp),%eax
   11940:	8b 80 74 02 00 00    	mov    0x274(%eax),%eax
   11946:	83 ec 0c             	sub    $0xc,%esp
   11949:	50                   	push   %eax
   1194a:	e8 d6 ee ff ff       	call   10825 <memory_destroy_uvm>
   1194f:	83 c4 10             	add    $0x10,%esp
    }

    kernel_memset(task, 0, sizeof(task_t));
   11952:	83 ec 04             	sub    $0x4,%esp
   11955:	68 c4 02 00 00       	push   $0x2c4
   1195a:	6a 00                	push   $0x0
   1195c:	ff 75 08             	pushl  0x8(%ebp)
   1195f:	e8 69 3e 00 00       	call   157cd <kernel_memset>
   11964:	83 c4 10             	add    $0x10,%esp
}
   11967:	90                   	nop
   11968:	c9                   	leave  
   11969:	c3                   	ret    

0001196a <sys_fork>:

/**
 * @brief 创建进程的副本
 */
int sys_fork(void)
{
   1196a:	55                   	push   %ebp
   1196b:	89 e5                	mov    %esp,%ebp
   1196d:	83 ec 28             	sub    $0x28,%esp
    task_t *parent_task = task_current();
   11970:	e8 0c fc ff ff       	call   11581 <task_current>
   11975:	89 45 f4             	mov    %eax,-0xc(%ebp)
    task_t *child_task = alloc_task();
   11978:	e8 b5 fe ff ff       	call   11832 <alloc_task>
   1197d:	89 45 f0             	mov    %eax,-0x10(%ebp)
    if (child_task == (task_t *)0)
   11980:	83 7d f0 00          	cmpl   $0x0,-0x10(%ebp)
   11984:	0f 84 41 01 00 00    	je     11acb <sys_fork+0x161>
    {
        goto fork_failed;
    }
    syscall_frame_t *frame = (syscall_frame_t *)(parent_task->tss.esp0 - sizeof(syscall_frame_t)); // 拿到父进程的寄存器
   1198a:	8b 45 f4             	mov    -0xc(%ebp),%eax
   1198d:	8b 80 5c 02 00 00    	mov    0x25c(%eax),%eax
   11993:	83 e8 58             	sub    $0x58,%eax
   11996:	89 45 ec             	mov    %eax,-0x14(%ebp)
    // 对子进程进行初始化，并对必要的字段进行调整
    // 其中esp要减去系统调用的总参数字节大小，因为其是通过正常的ret返回, 而没有走系统调用处理的ret(参数个数返回)
    int err = task_init(child_task, parent_task->name, 0, frame->eip,
                        frame->esp + sizeof(uint32_t) * SYSCALL_PARAM_COUNT);
   11999:	8b 45 ec             	mov    -0x14(%ebp),%eax
   1199c:	8b 40 50             	mov    0x50(%eax),%eax
   1199f:	8d 50 14             	lea    0x14(%eax),%edx
    int err = task_init(child_task, parent_task->name, 0, frame->eip,
   119a2:	8b 45 ec             	mov    -0x14(%ebp),%eax
   119a5:	8b 40 34             	mov    0x34(%eax),%eax
   119a8:	89 c1                	mov    %eax,%ecx
   119aa:	8b 45 f4             	mov    -0xc(%ebp),%eax
   119ad:	83 c0 04             	add    $0x4,%eax
   119b0:	83 ec 0c             	sub    $0xc,%esp
   119b3:	52                   	push   %edx
   119b4:	51                   	push   %ecx
   119b5:	6a 00                	push   $0x0
   119b7:	50                   	push   %eax
   119b8:	ff 75 f0             	pushl  -0x10(%ebp)
   119bb:	e8 eb f7 ff ff       	call   111ab <task_init>
   119c0:	83 c4 20             	add    $0x20,%esp
   119c3:	89 45 e8             	mov    %eax,-0x18(%ebp)
    if (err < 0)
   119c6:	83 7d e8 00          	cmpl   $0x0,-0x18(%ebp)
   119ca:	0f 88 fe 00 00 00    	js     11ace <sys_fork+0x164>
    {
        goto fork_failed;
    }
    // 从父进程的栈中取部分状态，然后写入tss。
    // 注意检查esp, eip等是否在用户空间范围内，不然会造成page_fault
    tss_t *tss = &child_task->tss;
   119d0:	8b 45 f0             	mov    -0x10(%ebp),%eax
   119d3:	05 58 02 00 00       	add    $0x258,%eax
   119d8:	89 45 e4             	mov    %eax,-0x1c(%ebp)
    tss->eax = 0; // 子进程返回0
   119db:	8b 45 e4             	mov    -0x1c(%ebp),%eax
   119de:	c7 40 28 00 00 00 00 	movl   $0x0,0x28(%eax)
    tss->ebx = frame->ebx;
   119e5:	8b 45 ec             	mov    -0x14(%ebp),%eax
   119e8:	8b 40 24             	mov    0x24(%eax),%eax
   119eb:	89 c2                	mov    %eax,%edx
   119ed:	8b 45 e4             	mov    -0x1c(%ebp),%eax
   119f0:	89 50 34             	mov    %edx,0x34(%eax)
    tss->ecx = frame->ecx;
   119f3:	8b 45 ec             	mov    -0x14(%ebp),%eax
   119f6:	8b 40 2c             	mov    0x2c(%eax),%eax
   119f9:	89 c2                	mov    %eax,%edx
   119fb:	8b 45 e4             	mov    -0x1c(%ebp),%eax
   119fe:	89 50 2c             	mov    %edx,0x2c(%eax)
    tss->edx = frame->edx;
   11a01:	8b 45 ec             	mov    -0x14(%ebp),%eax
   11a04:	8b 40 28             	mov    0x28(%eax),%eax
   11a07:	89 c2                	mov    %eax,%edx
   11a09:	8b 45 e4             	mov    -0x1c(%ebp),%eax
   11a0c:	89 50 30             	mov    %edx,0x30(%eax)
    tss->esi = frame->esi;
   11a0f:	8b 45 ec             	mov    -0x14(%ebp),%eax
   11a12:	8b 40 18             	mov    0x18(%eax),%eax
   11a15:	89 c2                	mov    %eax,%edx
   11a17:	8b 45 e4             	mov    -0x1c(%ebp),%eax
   11a1a:	89 50 40             	mov    %edx,0x40(%eax)
    tss->edi = frame->edi;
   11a1d:	8b 45 ec             	mov    -0x14(%ebp),%eax
   11a20:	8b 40 14             	mov    0x14(%eax),%eax
   11a23:	89 c2                	mov    %eax,%edx
   11a25:	8b 45 e4             	mov    -0x1c(%ebp),%eax
   11a28:	89 50 44             	mov    %edx,0x44(%eax)
    tss->ebp = frame->ebp;
   11a2b:	8b 45 ec             	mov    -0x14(%ebp),%eax
   11a2e:	8b 40 1c             	mov    0x1c(%eax),%eax
   11a31:	89 c2                	mov    %eax,%edx
   11a33:	8b 45 e4             	mov    -0x1c(%ebp),%eax
   11a36:	89 50 3c             	mov    %edx,0x3c(%eax)

    tss->cs = frame->cs;
   11a39:	8b 45 ec             	mov    -0x14(%ebp),%eax
   11a3c:	8b 40 38             	mov    0x38(%eax),%eax
   11a3f:	89 c2                	mov    %eax,%edx
   11a41:	8b 45 e4             	mov    -0x1c(%ebp),%eax
   11a44:	89 50 4c             	mov    %edx,0x4c(%eax)
    tss->ds = frame->ds;
   11a47:	8b 45 ec             	mov    -0x14(%ebp),%eax
   11a4a:	8b 40 10             	mov    0x10(%eax),%eax
   11a4d:	89 c2                	mov    %eax,%edx
   11a4f:	8b 45 e4             	mov    -0x1c(%ebp),%eax
   11a52:	89 50 54             	mov    %edx,0x54(%eax)
    tss->es = frame->es;
   11a55:	8b 45 ec             	mov    -0x14(%ebp),%eax
   11a58:	8b 40 0c             	mov    0xc(%eax),%eax
   11a5b:	89 c2                	mov    %eax,%edx
   11a5d:	8b 45 e4             	mov    -0x1c(%ebp),%eax
   11a60:	89 50 48             	mov    %edx,0x48(%eax)
    tss->fs = frame->fs;
   11a63:	8b 45 ec             	mov    -0x14(%ebp),%eax
   11a66:	8b 40 08             	mov    0x8(%eax),%eax
   11a69:	89 c2                	mov    %eax,%edx
   11a6b:	8b 45 e4             	mov    -0x1c(%ebp),%eax
   11a6e:	89 50 58             	mov    %edx,0x58(%eax)
    tss->gs = frame->gs;
   11a71:	8b 45 ec             	mov    -0x14(%ebp),%eax
   11a74:	8b 40 04             	mov    0x4(%eax),%eax
   11a77:	89 c2                	mov    %eax,%edx
   11a79:	8b 45 e4             	mov    -0x1c(%ebp),%eax
   11a7c:	89 50 5c             	mov    %edx,0x5c(%eax)
    tss->eflags = frame->eflags;
   11a7f:	8b 45 ec             	mov    -0x14(%ebp),%eax
   11a82:	8b 00                	mov    (%eax),%eax
   11a84:	89 c2                	mov    %eax,%edx
   11a86:	8b 45 e4             	mov    -0x1c(%ebp),%eax
   11a89:	89 50 24             	mov    %edx,0x24(%eax)

    child_task->parent = parent_task;
   11a8c:	8b 45 f0             	mov    -0x10(%ebp),%eax
   11a8f:	8b 55 f4             	mov    -0xc(%ebp),%edx
   11a92:	89 50 28             	mov    %edx,0x28(%eax)
    // 复制父进程的内存空间到子进程
    if ((child_task->tss.cr3 = memory_copy_uvm(parent_task->tss.cr3)) < 0)
   11a95:	8b 45 f4             	mov    -0xc(%ebp),%eax
   11a98:	8b 80 74 02 00 00    	mov    0x274(%eax),%eax
   11a9e:	83 ec 0c             	sub    $0xc,%esp
   11aa1:	50                   	push   %eax
   11aa2:	e8 8d ee ff ff       	call   10934 <memory_copy_uvm>
   11aa7:	83 c4 10             	add    $0x10,%esp
   11aaa:	89 c2                	mov    %eax,%edx
   11aac:	8b 45 f0             	mov    -0x10(%ebp),%eax
   11aaf:	89 90 74 02 00 00    	mov    %edx,0x274(%eax)
    {
        goto fork_failed;
    }
    // 创建成功，返回子进程的pid
    task_start(child_task);
   11ab5:	83 ec 0c             	sub    $0xc,%esp
   11ab8:	ff 75 f0             	pushl  -0x10(%ebp)
   11abb:	e8 4d f8 ff ff       	call   1130d <task_start>
   11ac0:	83 c4 10             	add    $0x10,%esp
    return child_task->pid;
   11ac3:	8b 45 f0             	mov    -0x10(%ebp),%eax
   11ac6:	8b 40 24             	mov    0x24(%eax),%eax
   11ac9:	eb 2b                	jmp    11af6 <sys_fork+0x18c>
        goto fork_failed;
   11acb:	90                   	nop
   11acc:	eb 01                	jmp    11acf <sys_fork+0x165>
        goto fork_failed;
   11ace:	90                   	nop
fork_failed:
    if (child_task)
   11acf:	83 7d f0 00          	cmpl   $0x0,-0x10(%ebp)
   11ad3:	74 1c                	je     11af1 <sys_fork+0x187>
    {
        task_uninit(child_task);
   11ad5:	83 ec 0c             	sub    $0xc,%esp
   11ad8:	ff 75 f0             	pushl  -0x10(%ebp)
   11adb:	e8 01 fe ff ff       	call   118e1 <task_uninit>
   11ae0:	83 c4 10             	add    $0x10,%esp
        free_task(child_task);
   11ae3:	83 ec 0c             	sub    $0xc,%esp
   11ae6:	ff 75 f0             	pushl  -0x10(%ebp)
   11ae9:	e8 ad fd ff ff       	call   1189b <free_task>
   11aee:	83 c4 10             	add    $0x10,%esp
    }
    return -1;
   11af1:	b8 ff ff ff ff       	mov    $0xffffffff,%eax
}
   11af6:	c9                   	leave  
   11af7:	c3                   	ret    

00011af8 <load_phdr>:

/**
 * @brief 加载一个程序表头的数据到内存中
 */
static int load_phdr(int file, Elf32_Phdr *phdr, uint32_t page_dir)
{
   11af8:	55                   	push   %ebp
   11af9:	89 e5                	mov    %esp,%ebp
   11afb:	83 ec 28             	sub    $0x28,%esp
    // 生成的ELF文件要求是页边界对齐的
    ASSERT((phdr->p_vaddr & (MEM_PAGE_SIZE - 1)) == 0);
   11afe:	8b 45 0c             	mov    0xc(%ebp),%eax
   11b01:	8b 40 08             	mov    0x8(%eax),%eax
   11b04:	25 ff 0f 00 00       	and    $0xfff,%eax
   11b09:	85 c0                	test   %eax,%eax
   11b0b:	74 1c                	je     11b29 <load_phdr+0x31>
   11b0d:	68 98 62 01 00       	push   $0x16298
   11b12:	68 a8 63 01 00       	push   $0x163a8
   11b17:	68 12 02 00 00       	push   $0x212
   11b1c:	68 1c 62 01 00       	push   $0x1621c
   11b21:	e8 d0 3f 00 00       	call   15af6 <panic>
   11b26:	83 c4 10             	add    $0x10,%esp

    // 分配空间
    int err = memory_alloc_for_page_dir(page_dir, phdr->p_vaddr, phdr->p_memsz, PTE_P | PTE_U | PTE_W);
   11b29:	8b 45 0c             	mov    0xc(%ebp),%eax
   11b2c:	8b 50 14             	mov    0x14(%eax),%edx
   11b2f:	8b 45 0c             	mov    0xc(%ebp),%eax
   11b32:	8b 40 08             	mov    0x8(%eax),%eax
   11b35:	6a 07                	push   $0x7
   11b37:	52                   	push   %edx
   11b38:	50                   	push   %eax
   11b39:	ff 75 10             	pushl  0x10(%ebp)
   11b3c:	e8 11 f0 ff ff       	call   10b52 <memory_alloc_for_page_dir>
   11b41:	83 c4 10             	add    $0x10,%esp
   11b44:	89 45 ec             	mov    %eax,-0x14(%ebp)
    if (err < 0)
   11b47:	83 7d ec 00          	cmpl   $0x0,-0x14(%ebp)
   11b4b:	79 1a                	jns    11b67 <load_phdr+0x6f>
    {
        log_printf("no memory");
   11b4d:	83 ec 0c             	sub    $0xc,%esp
   11b50:	68 c3 62 01 00       	push   $0x162c3
   11b55:	e8 6c 42 00 00       	call   15dc6 <log_printf>
   11b5a:	83 c4 10             	add    $0x10,%esp
        return -1;
   11b5d:	b8 ff ff ff ff       	mov    $0xffffffff,%eax
   11b62:	e9 b8 00 00 00       	jmp    11c1f <load_phdr+0x127>
    }

    // 调整当前的读写位置
    if (sys_lseek(file, phdr->p_offset, 0) < 0)
   11b67:	8b 45 0c             	mov    0xc(%ebp),%eax
   11b6a:	8b 40 04             	mov    0x4(%eax),%eax
   11b6d:	83 ec 04             	sub    $0x4,%esp
   11b70:	6a 00                	push   $0x0
   11b72:	50                   	push   %eax
   11b73:	ff 75 08             	pushl  0x8(%ebp)
   11b76:	e8 9a 33 00 00       	call   14f15 <sys_lseek>
   11b7b:	83 c4 10             	add    $0x10,%esp
   11b7e:	85 c0                	test   %eax,%eax
   11b80:	79 1a                	jns    11b9c <load_phdr+0xa4>
    {
        log_printf("read file failed");
   11b82:	83 ec 0c             	sub    $0xc,%esp
   11b85:	68 cd 62 01 00       	push   $0x162cd
   11b8a:	e8 37 42 00 00       	call   15dc6 <log_printf>
   11b8f:	83 c4 10             	add    $0x10,%esp
        return -1;
   11b92:	b8 ff ff ff ff       	mov    $0xffffffff,%eax
   11b97:	e9 83 00 00 00       	jmp    11c1f <load_phdr+0x127>
    }

    // 为段分配所有的内存空间.后续操作如果失败，将在上层释放
    // 简单起见，设置成可写模式，也许可考虑根据phdr->flags设置成只读
    // 因为没有找到该值的详细定义，所以没有加上
    uint32_t vaddr = phdr->p_vaddr; // 内存中的起始地址
   11b9c:	8b 45 0c             	mov    0xc(%ebp),%eax
   11b9f:	8b 40 08             	mov    0x8(%eax),%eax
   11ba2:	89 45 f4             	mov    %eax,-0xc(%ebp)
    uint32_t size = phdr->p_filesz; // 文件需要拷贝的数据量
   11ba5:	8b 45 0c             	mov    0xc(%ebp),%eax
   11ba8:	8b 40 10             	mov    0x10(%eax),%eax
   11bab:	89 45 f0             	mov    %eax,-0x10(%ebp)
    while (size > 0)
   11bae:	eb 64                	jmp    11c14 <load_phdr+0x11c>
    {
        int curr_size = (size > MEM_PAGE_SIZE) ? MEM_PAGE_SIZE : size; // 至多copy一页的数据
   11bb0:	b8 00 10 00 00       	mov    $0x1000,%eax
   11bb5:	81 7d f0 00 10 00 00 	cmpl   $0x1000,-0x10(%ebp)
   11bbc:	0f 46 45 f0          	cmovbe -0x10(%ebp),%eax
   11bc0:	89 45 e8             	mov    %eax,-0x18(%ebp)

        uint32_t paddr = memory_get_paddr(page_dir, vaddr); // 拿到物理地址，因为该页还没启用，不能直接copy
   11bc3:	83 ec 08             	sub    $0x8,%esp
   11bc6:	ff 75 f4             	pushl  -0xc(%ebp)
   11bc9:	ff 75 10             	pushl  0x10(%ebp)
   11bcc:	e8 b8 ee ff ff       	call   10a89 <memory_get_paddr>
   11bd1:	83 c4 10             	add    $0x10,%esp
   11bd4:	89 45 e4             	mov    %eax,-0x1c(%ebp)

        // 注意，这里用的页表仍然是当前的
        if (sys_read(file, (char *)paddr, curr_size) < curr_size)
   11bd7:	8b 45 e4             	mov    -0x1c(%ebp),%eax
   11bda:	83 ec 04             	sub    $0x4,%esp
   11bdd:	ff 75 e8             	pushl  -0x18(%ebp)
   11be0:	50                   	push   %eax
   11be1:	ff 75 08             	pushl  0x8(%ebp)
   11be4:	e8 59 32 00 00       	call   14e42 <sys_read>
   11be9:	83 c4 10             	add    $0x10,%esp
   11bec:	39 45 e8             	cmp    %eax,-0x18(%ebp)
   11bef:	7e 17                	jle    11c08 <load_phdr+0x110>
        {
            log_printf("read file failed");
   11bf1:	83 ec 0c             	sub    $0xc,%esp
   11bf4:	68 cd 62 01 00       	push   $0x162cd
   11bf9:	e8 c8 41 00 00       	call   15dc6 <log_printf>
   11bfe:	83 c4 10             	add    $0x10,%esp
            return -1;
   11c01:	b8 ff ff ff ff       	mov    $0xffffffff,%eax
   11c06:	eb 17                	jmp    11c1f <load_phdr+0x127>
        }

        size -= curr_size;
   11c08:	8b 45 e8             	mov    -0x18(%ebp),%eax
   11c0b:	29 45 f0             	sub    %eax,-0x10(%ebp)
        vaddr += curr_size;
   11c0e:	8b 45 e8             	mov    -0x18(%ebp),%eax
   11c11:	01 45 f4             	add    %eax,-0xc(%ebp)
    while (size > 0)
   11c14:	83 7d f0 00          	cmpl   $0x0,-0x10(%ebp)
   11c18:	75 96                	jne    11bb0 <load_phdr+0xb8>

    // bss区考虑由crt0和cstart自行清0，这样更简单一些
    // 如果在上边进行处理，需要考虑到有可能的跨页表填充数据，懒得写代码
    // 或者也可修改memory_alloc_for_page_dir，增加分配时清0页表，但这样开销较大
    // 所以，直接放在cstart哐crt0中直接内存填0，比较简单
    return 0;
   11c1a:	b8 00 00 00 00       	mov    $0x0,%eax
}
   11c1f:	c9                   	leave  
   11c20:	c3                   	ret    

00011c21 <load_elf_file>:

/**
 * @brief 加载elf文件到内存中
 */
static uint32_t load_elf_file(task_t *task, const char *name, uint32_t page_dir)
{
   11c21:	55                   	push   %ebp
   11c22:	89 e5                	mov    %esp,%ebp
   11c24:	83 ec 78             	sub    $0x78,%esp
    Elf32_Ehdr elf_hdr;
    Elf32_Phdr elf_phdr;

    int file = sys_open(name, 0);
   11c27:	83 ec 08             	sub    $0x8,%esp
   11c2a:	6a 00                	push   $0x0
   11c2c:	ff 75 0c             	pushl  0xc(%ebp)
   11c2f:	e8 9f 30 00 00       	call   14cd3 <sys_open>
   11c34:	83 c4 10             	add    $0x10,%esp
   11c37:	89 45 ec             	mov    %eax,-0x14(%ebp)
    if (file < 0)
   11c3a:	83 7d ec 00          	cmpl   $0x0,-0x14(%ebp)
   11c3e:	79 18                	jns    11c58 <load_elf_file+0x37>
    {
        log_printf("open failed. %s", name);
   11c40:	83 ec 08             	sub    $0x8,%esp
   11c43:	ff 75 0c             	pushl  0xc(%ebp)
   11c46:	68 de 62 01 00       	push   $0x162de
   11c4b:	e8 76 41 00 00       	call   15dc6 <log_printf>
   11c50:	83 c4 10             	add    $0x10,%esp
        goto load_failed;
   11c53:	e9 c1 01 00 00       	jmp    11e19 <load_elf_file+0x1f8>
    }
    // 先读取文件头
    int cnt = sys_read(file, (char *)&elf_hdr, sizeof(Elf32_Ehdr));
   11c58:	83 ec 04             	sub    $0x4,%esp
   11c5b:	6a 34                	push   $0x34
   11c5d:	8d 45 b0             	lea    -0x50(%ebp),%eax
   11c60:	50                   	push   %eax
   11c61:	ff 75 ec             	pushl  -0x14(%ebp)
   11c64:	e8 d9 31 00 00       	call   14e42 <sys_read>
   11c69:	83 c4 10             	add    $0x10,%esp
   11c6c:	89 45 e8             	mov    %eax,-0x18(%ebp)
    if (cnt < sizeof(Elf32_Ehdr))
   11c6f:	8b 45 e8             	mov    -0x18(%ebp),%eax
   11c72:	83 f8 33             	cmp    $0x33,%eax
   11c75:	77 18                	ja     11c8f <load_elf_file+0x6e>
    {
        log_printf("elf hdr too small. size=%d", cnt);
   11c77:	83 ec 08             	sub    $0x8,%esp
   11c7a:	ff 75 e8             	pushl  -0x18(%ebp)
   11c7d:	68 ee 62 01 00       	push   $0x162ee
   11c82:	e8 3f 41 00 00       	call   15dc6 <log_printf>
   11c87:	83 c4 10             	add    $0x10,%esp
        goto load_failed;
   11c8a:	e9 8a 01 00 00       	jmp    11e19 <load_elf_file+0x1f8>
    }
    // 做点必要性的检查。当然可以再做其它检查
    if ((elf_hdr.e_ident[0] != ELF_MAGIC) || (elf_hdr.e_ident[1] != 'E') || (elf_hdr.e_ident[2] != 'L') || (elf_hdr.e_ident[3] != 'F'))
   11c8f:	0f b6 45 b0          	movzbl -0x50(%ebp),%eax
   11c93:	3c 7f                	cmp    $0x7f,%al
   11c95:	75 18                	jne    11caf <load_elf_file+0x8e>
   11c97:	0f b6 45 b1          	movzbl -0x4f(%ebp),%eax
   11c9b:	3c 45                	cmp    $0x45,%al
   11c9d:	75 10                	jne    11caf <load_elf_file+0x8e>
   11c9f:	0f b6 45 b2          	movzbl -0x4e(%ebp),%eax
   11ca3:	3c 4c                	cmp    $0x4c,%al
   11ca5:	75 08                	jne    11caf <load_elf_file+0x8e>
   11ca7:	0f b6 45 b3          	movzbl -0x4d(%ebp),%eax
   11cab:	3c 46                	cmp    $0x46,%al
   11cad:	74 15                	je     11cc4 <load_elf_file+0xa3>
    {
        log_printf("check elf indent failed.");
   11caf:	83 ec 0c             	sub    $0xc,%esp
   11cb2:	68 09 63 01 00       	push   $0x16309
   11cb7:	e8 0a 41 00 00       	call   15dc6 <log_printf>
   11cbc:	83 c4 10             	add    $0x10,%esp
        goto load_failed;
   11cbf:	e9 55 01 00 00       	jmp    11e19 <load_elf_file+0x1f8>
    }

    // 必须是可执行文件和针对386处理器的类型，且有入口
    if ((elf_hdr.e_type != ET_EXEC) || (elf_hdr.e_machine != ET_386) || (elf_hdr.e_entry == 0))
   11cc4:	0f b7 45 c0          	movzwl -0x40(%ebp),%eax
   11cc8:	66 83 f8 02          	cmp    $0x2,%ax
   11ccc:	75 11                	jne    11cdf <load_elf_file+0xbe>
   11cce:	0f b7 45 c2          	movzwl -0x3e(%ebp),%eax
   11cd2:	66 83 f8 03          	cmp    $0x3,%ax
   11cd6:	75 07                	jne    11cdf <load_elf_file+0xbe>
   11cd8:	8b 45 c8             	mov    -0x38(%ebp),%eax
   11cdb:	85 c0                	test   %eax,%eax
   11cdd:	75 15                	jne    11cf4 <load_elf_file+0xd3>
    {
        log_printf("check elf type or entry failed.");
   11cdf:	83 ec 0c             	sub    $0xc,%esp
   11ce2:	68 24 63 01 00       	push   $0x16324
   11ce7:	e8 da 40 00 00       	call   15dc6 <log_printf>
   11cec:	83 c4 10             	add    $0x10,%esp
        goto load_failed;
   11cef:	e9 25 01 00 00       	jmp    11e19 <load_elf_file+0x1f8>
    }

    // 必须有程序头部
    if ((elf_hdr.e_phentsize == 0) || (elf_hdr.e_phoff == 0))
   11cf4:	0f b7 45 da          	movzwl -0x26(%ebp),%eax
   11cf8:	66 85 c0             	test   %ax,%ax
   11cfb:	74 07                	je     11d04 <load_elf_file+0xe3>
   11cfd:	8b 45 cc             	mov    -0x34(%ebp),%eax
   11d00:	85 c0                	test   %eax,%eax
   11d02:	75 15                	jne    11d19 <load_elf_file+0xf8>
    {
        log_printf("none programe header");
   11d04:	83 ec 0c             	sub    $0xc,%esp
   11d07:	68 44 63 01 00       	push   $0x16344
   11d0c:	e8 b5 40 00 00       	call   15dc6 <log_printf>
   11d11:	83 c4 10             	add    $0x10,%esp
        goto load_failed;
   11d14:	e9 00 01 00 00       	jmp    11e19 <load_elf_file+0x1f8>
    }

    // 然后从中加载程序头，将内容拷贝到相应的位置
    uint32_t e_phoff = elf_hdr.e_phoff;
   11d19:	8b 45 cc             	mov    -0x34(%ebp),%eax
   11d1c:	89 45 f4             	mov    %eax,-0xc(%ebp)

    for (int i = 0; i < elf_hdr.e_phnum; i++, e_phoff += elf_hdr.e_phentsize)
   11d1f:	c7 45 f0 00 00 00 00 	movl   $0x0,-0x10(%ebp)
   11d26:	e9 cb 00 00 00       	jmp    11df6 <load_elf_file+0x1d5>
    {
        if (sys_lseek(file, e_phoff, 0) < 0)
   11d2b:	8b 45 f4             	mov    -0xc(%ebp),%eax
   11d2e:	83 ec 04             	sub    $0x4,%esp
   11d31:	6a 00                	push   $0x0
   11d33:	50                   	push   %eax
   11d34:	ff 75 ec             	pushl  -0x14(%ebp)
   11d37:	e8 d9 31 00 00       	call   14f15 <sys_lseek>
   11d3c:	83 c4 10             	add    $0x10,%esp
   11d3f:	85 c0                	test   %eax,%eax
   11d41:	79 15                	jns    11d58 <load_elf_file+0x137>
        {
            log_printf("read file failed");
   11d43:	83 ec 0c             	sub    $0xc,%esp
   11d46:	68 cd 62 01 00       	push   $0x162cd
   11d4b:	e8 76 40 00 00       	call   15dc6 <log_printf>
   11d50:	83 c4 10             	add    $0x10,%esp
            goto load_failed;
   11d53:	e9 c1 00 00 00       	jmp    11e19 <load_elf_file+0x1f8>
        }

        // 读取程序头后解析，这里不用读取到新进程的页表中，因为只是临时使用下
        cnt = sys_read(file, (char *)&elf_phdr, sizeof(Elf32_Phdr));
   11d58:	83 ec 04             	sub    $0x4,%esp
   11d5b:	6a 20                	push   $0x20
   11d5d:	8d 45 90             	lea    -0x70(%ebp),%eax
   11d60:	50                   	push   %eax
   11d61:	ff 75 ec             	pushl  -0x14(%ebp)
   11d64:	e8 d9 30 00 00       	call   14e42 <sys_read>
   11d69:	83 c4 10             	add    $0x10,%esp
   11d6c:	89 45 e8             	mov    %eax,-0x18(%ebp)
        if (cnt < sizeof(Elf32_Phdr))
   11d6f:	8b 45 e8             	mov    -0x18(%ebp),%eax
   11d72:	83 f8 1f             	cmp    $0x1f,%eax
   11d75:	77 15                	ja     11d8c <load_elf_file+0x16b>
        {
            log_printf("read file failed");
   11d77:	83 ec 0c             	sub    $0xc,%esp
   11d7a:	68 cd 62 01 00       	push   $0x162cd
   11d7f:	e8 42 40 00 00       	call   15dc6 <log_printf>
   11d84:	83 c4 10             	add    $0x10,%esp
            goto load_failed;
   11d87:	e9 8d 00 00 00       	jmp    11e19 <load_elf_file+0x1f8>
        }

        // 简单做一些检查，如有必要，可自行加更多
        // 主要判断是否是可加载的类型，并且要求加载的地址必须是用户空间
        if ((elf_phdr.p_type != PT_LOAD) || (elf_phdr.p_vaddr < MEMORY_TASK_BASE))
   11d8c:	8b 45 90             	mov    -0x70(%ebp),%eax
   11d8f:	83 f8 01             	cmp    $0x1,%eax
   11d92:	75 53                	jne    11de7 <load_elf_file+0x1c6>
   11d94:	8b 45 98             	mov    -0x68(%ebp),%eax
   11d97:	85 c0                	test   %eax,%eax
   11d99:	79 4c                	jns    11de7 <load_elf_file+0x1c6>
        {
            continue;
        }

        // 加载当前程序头
        int err = load_phdr(file, &elf_phdr, page_dir);
   11d9b:	83 ec 04             	sub    $0x4,%esp
   11d9e:	ff 75 10             	pushl  0x10(%ebp)
   11da1:	8d 45 90             	lea    -0x70(%ebp),%eax
   11da4:	50                   	push   %eax
   11da5:	ff 75 ec             	pushl  -0x14(%ebp)
   11da8:	e8 4b fd ff ff       	call   11af8 <load_phdr>
   11dad:	83 c4 10             	add    $0x10,%esp
   11db0:	89 45 e4             	mov    %eax,-0x1c(%ebp)
        if (err < 0)
   11db3:	83 7d e4 00          	cmpl   $0x0,-0x1c(%ebp)
   11db7:	79 12                	jns    11dcb <load_elf_file+0x1aa>
        {
            log_printf("load program hdr failed");
   11db9:	83 ec 0c             	sub    $0xc,%esp
   11dbc:	68 59 63 01 00       	push   $0x16359
   11dc1:	e8 00 40 00 00       	call   15dc6 <log_printf>
   11dc6:	83 c4 10             	add    $0x10,%esp
            goto load_failed;
   11dc9:	eb 4e                	jmp    11e19 <load_elf_file+0x1f8>
        }

        // 简单起见，不检查了，以最后的地址为bss的地址
        // 最后地址是最后一个elf段加载的地址
        task->heap_start = elf_phdr.p_vaddr + elf_phdr.p_memsz;
   11dcb:	8b 55 98             	mov    -0x68(%ebp),%edx
   11dce:	8b 45 a4             	mov    -0x5c(%ebp),%eax
   11dd1:	01 c2                	add    %eax,%edx
   11dd3:	8b 45 08             	mov    0x8(%ebp),%eax
   11dd6:	89 50 2c             	mov    %edx,0x2c(%eax)
        task->heap_end = task->heap_start;
   11dd9:	8b 45 08             	mov    0x8(%ebp),%eax
   11ddc:	8b 50 2c             	mov    0x2c(%eax),%edx
   11ddf:	8b 45 08             	mov    0x8(%ebp),%eax
   11de2:	89 50 30             	mov    %edx,0x30(%eax)
   11de5:	eb 01                	jmp    11de8 <load_elf_file+0x1c7>
            continue;
   11de7:	90                   	nop
    for (int i = 0; i < elf_hdr.e_phnum; i++, e_phoff += elf_hdr.e_phentsize)
   11de8:	83 45 f0 01          	addl   $0x1,-0x10(%ebp)
   11dec:	0f b7 45 da          	movzwl -0x26(%ebp),%eax
   11df0:	0f b7 c0             	movzwl %ax,%eax
   11df3:	01 45 f4             	add    %eax,-0xc(%ebp)
   11df6:	0f b7 45 dc          	movzwl -0x24(%ebp),%eax
   11dfa:	0f b7 c0             	movzwl %ax,%eax
   11dfd:	39 45 f0             	cmp    %eax,-0x10(%ebp)
   11e00:	0f 8c 25 ff ff ff    	jl     11d2b <load_elf_file+0x10a>
    }
    sys_close(file);
   11e06:	83 ec 0c             	sub    $0xc,%esp
   11e09:	ff 75 ec             	pushl  -0x14(%ebp)
   11e0c:	e8 28 31 00 00       	call   14f39 <sys_close>
   11e11:	83 c4 10             	add    $0x10,%esp
    return elf_hdr.e_entry;
   11e14:	8b 45 c8             	mov    -0x38(%ebp),%eax
   11e17:	eb 19                	jmp    11e32 <load_elf_file+0x211>
load_failed:
    // 文件已经打开
    if (file >= 0)
   11e19:	83 7d ec 00          	cmpl   $0x0,-0x14(%ebp)
   11e1d:	78 0e                	js     11e2d <load_elf_file+0x20c>
    {
        sys_close(file);
   11e1f:	83 ec 0c             	sub    $0xc,%esp
   11e22:	ff 75 ec             	pushl  -0x14(%ebp)
   11e25:	e8 0f 31 00 00       	call   14f39 <sys_close>
   11e2a:	83 c4 10             	add    $0x10,%esp
    }
    return 0;
   11e2d:	b8 00 00 00 00       	mov    $0x0,%eax
}
   11e32:	c9                   	leave  
   11e33:	c3                   	ret    

00011e34 <copy_args>:

/**
 * @brief 复制进程参数到栈中。注意argv和env指向的空间在另一个页表里
 */
static int copy_args(char *to, uint32_t page_dir, int argc, char **argv)
{
   11e34:	55                   	push   %ebp
   11e35:	89 e5                	mov    %esp,%ebp
   11e37:	83 ec 38             	sub    $0x38,%esp
    // 在stack_top中依次写入argc, argv指针，参数字符串
    task_args_t task_args;
    task_args.argc = argc;
   11e3a:	8b 45 10             	mov    0x10(%ebp),%eax
   11e3d:	89 45 d8             	mov    %eax,-0x28(%ebp)
    task_args.argv = (char **)(to + sizeof(task_args_t));
   11e40:	8b 45 08             	mov    0x8(%ebp),%eax
   11e43:	83 c0 0c             	add    $0xc,%eax
   11e46:	89 45 dc             	mov    %eax,-0x24(%ebp)

    // 复制各项参数, 跳过task_args和参数表
    // 各argv参数写入的内存空间
    char *dest_arg = to + sizeof(task_args_t) + sizeof(char *) * (argc + 1); // 留出结束符
   11e49:	8b 45 10             	mov    0x10(%ebp),%eax
   11e4c:	83 c0 04             	add    $0x4,%eax
   11e4f:	8d 14 85 00 00 00 00 	lea    0x0(,%eax,4),%edx
   11e56:	8b 45 08             	mov    0x8(%ebp),%eax
   11e59:	01 d0                	add    %edx,%eax
   11e5b:	89 45 f4             	mov    %eax,-0xc(%ebp)

    // argv表
    char **dest_argv_tb = (char **)memory_get_paddr(page_dir, (uint32_t)(to + sizeof(task_args_t)));
   11e5e:	8b 45 08             	mov    0x8(%ebp),%eax
   11e61:	83 c0 0c             	add    $0xc,%eax
   11e64:	83 ec 08             	sub    $0x8,%esp
   11e67:	50                   	push   %eax
   11e68:	ff 75 0c             	pushl  0xc(%ebp)
   11e6b:	e8 19 ec ff ff       	call   10a89 <memory_get_paddr>
   11e70:	83 c4 10             	add    $0x10,%esp
   11e73:	89 45 ec             	mov    %eax,-0x14(%ebp)
    ASSERT(dest_argv_tb != 0);
   11e76:	83 7d ec 00          	cmpl   $0x0,-0x14(%ebp)
   11e7a:	75 1c                	jne    11e98 <copy_args+0x64>
   11e7c:	68 71 63 01 00       	push   $0x16371
   11e81:	68 b4 63 01 00       	push   $0x163b4
   11e86:	68 ac 02 00 00       	push   $0x2ac
   11e8b:	68 1c 62 01 00       	push   $0x1621c
   11e90:	e8 61 3c 00 00       	call   15af6 <panic>
   11e95:	83 c4 10             	add    $0x10,%esp

    for (int i = 0; i < argc; i++)
   11e98:	c7 45 f0 00 00 00 00 	movl   $0x0,-0x10(%ebp)
   11e9f:	e9 82 00 00 00       	jmp    11f26 <copy_args+0xf2>
    {
        char *from = argv[i];
   11ea4:	8b 45 f0             	mov    -0x10(%ebp),%eax
   11ea7:	8d 14 85 00 00 00 00 	lea    0x0(,%eax,4),%edx
   11eae:	8b 45 14             	mov    0x14(%ebp),%eax
   11eb1:	01 d0                	add    %edx,%eax
   11eb3:	8b 00                	mov    (%eax),%eax
   11eb5:	89 45 e8             	mov    %eax,-0x18(%ebp)

        // 不能用kernel_strcpy，因为to和argv不在一个页表里
        int len = kernel_strlen(from) + 1; // 包含结束符
   11eb8:	83 ec 0c             	sub    $0xc,%esp
   11ebb:	ff 75 e8             	pushl  -0x18(%ebp)
   11ebe:	e8 80 38 00 00       	call   15743 <kernel_strlen>
   11ec3:	83 c4 10             	add    $0x10,%esp
   11ec6:	83 c0 01             	add    $0x1,%eax
   11ec9:	89 45 e4             	mov    %eax,-0x1c(%ebp)
        int err = memory_copy_uvm_data((uint32_t)dest_arg, page_dir, (uint32_t)from, len);
   11ecc:	8b 4d e4             	mov    -0x1c(%ebp),%ecx
   11ecf:	8b 55 e8             	mov    -0x18(%ebp),%edx
   11ed2:	8b 45 f4             	mov    -0xc(%ebp),%eax
   11ed5:	51                   	push   %ecx
   11ed6:	52                   	push   %edx
   11ed7:	ff 75 0c             	pushl  0xc(%ebp)
   11eda:	50                   	push   %eax
   11edb:	e8 ef eb ff ff       	call   10acf <memory_copy_uvm_data>
   11ee0:	83 c4 10             	add    $0x10,%esp
   11ee3:	89 45 e0             	mov    %eax,-0x20(%ebp)
        ASSERT(err >= 0);
   11ee6:	83 7d e0 00          	cmpl   $0x0,-0x20(%ebp)
   11eea:	79 1c                	jns    11f08 <copy_args+0xd4>
   11eec:	68 83 63 01 00       	push   $0x16383
   11ef1:	68 b4 63 01 00       	push   $0x163b4
   11ef6:	68 b5 02 00 00       	push   $0x2b5
   11efb:	68 1c 62 01 00       	push   $0x1621c
   11f00:	e8 f1 3b 00 00       	call   15af6 <panic>
   11f05:	83 c4 10             	add    $0x10,%esp

        // 关联arg
        dest_argv_tb[i] = dest_arg;
   11f08:	8b 45 f0             	mov    -0x10(%ebp),%eax
   11f0b:	8d 14 85 00 00 00 00 	lea    0x0(,%eax,4),%edx
   11f12:	8b 45 ec             	mov    -0x14(%ebp),%eax
   11f15:	01 c2                	add    %eax,%edx
   11f17:	8b 45 f4             	mov    -0xc(%ebp),%eax
   11f1a:	89 02                	mov    %eax,(%edx)

        // 记录下位置后，复制的位置前移
        dest_arg += len;
   11f1c:	8b 45 e4             	mov    -0x1c(%ebp),%eax
   11f1f:	01 45 f4             	add    %eax,-0xc(%ebp)
    for (int i = 0; i < argc; i++)
   11f22:	83 45 f0 01          	addl   $0x1,-0x10(%ebp)
   11f26:	8b 45 f0             	mov    -0x10(%ebp),%eax
   11f29:	3b 45 10             	cmp    0x10(%ebp),%eax
   11f2c:	0f 8c 72 ff ff ff    	jl     11ea4 <copy_args+0x70>
    }
    // 可能存在无参的情况，此时不需要写入
    if (argc)
   11f32:	83 7d 10 00          	cmpl   $0x0,0x10(%ebp)
   11f36:	74 15                	je     11f4d <copy_args+0x119>
    {
        dest_argv_tb[argc] = '\0';
   11f38:	8b 45 10             	mov    0x10(%ebp),%eax
   11f3b:	8d 14 85 00 00 00 00 	lea    0x0(,%eax,4),%edx
   11f42:	8b 45 ec             	mov    -0x14(%ebp),%eax
   11f45:	01 d0                	add    %edx,%eax
   11f47:	c7 00 00 00 00 00    	movl   $0x0,(%eax)
    }

    // 写入task_args
    return memory_copy_uvm_data((uint32_t)to, page_dir, (uint32_t)&task_args, sizeof(task_args_t));
   11f4d:	8d 55 d4             	lea    -0x2c(%ebp),%edx
   11f50:	8b 45 08             	mov    0x8(%ebp),%eax
   11f53:	6a 0c                	push   $0xc
   11f55:	52                   	push   %edx
   11f56:	ff 75 0c             	pushl  0xc(%ebp)
   11f59:	50                   	push   %eax
   11f5a:	e8 70 eb ff ff       	call   10acf <memory_copy_uvm_data>
   11f5f:	83 c4 10             	add    $0x10,%esp
}
   11f62:	c9                   	leave  
   11f63:	c3                   	ret    

00011f64 <sys_execve>:
 * @brief 加载一个进程
 * 这个比较复杂，argv/name/env都是原进程空间中的数据，execve中涉及到页表的切换
 * 在对argv和name进行处理时，会涉及到不同进程空间中数据的传递。
 */
int sys_execve(char *name, char **argv, char **env)
{
   11f64:	55                   	push   %ebp
   11f65:	89 e5                	mov    %esp,%ebp
   11f67:	83 ec 28             	sub    $0x28,%esp
    task_t *task = task_current();
   11f6a:	e8 12 f6 ff ff       	call   11581 <task_current>
   11f6f:	89 45 f4             	mov    %eax,-0xc(%ebp)
    // 后面会切换页表，所以先处理需要从进程空间取数据的情况
    kernel_strncpy(task->name, get_file_name(name), TASK_NAME_SIZE);
   11f72:	83 ec 0c             	sub    $0xc,%esp
   11f75:	ff 75 08             	pushl  0x8(%ebp)
   11f78:	e8 af 3b 00 00       	call   15b2c <get_file_name>
   11f7d:	83 c4 10             	add    $0x10,%esp
   11f80:	89 c2                	mov    %eax,%edx
   11f82:	8b 45 f4             	mov    -0xc(%ebp),%eax
   11f85:	83 c0 04             	add    $0x4,%eax
   11f88:	83 ec 04             	sub    $0x4,%esp
   11f8b:	6a 20                	push   $0x20
   11f8d:	52                   	push   %edx
   11f8e:	50                   	push   %eax
   11f8f:	e8 c1 36 00 00       	call   15655 <kernel_strncpy>
   11f94:	83 c4 10             	add    $0x10,%esp
    // 现在开始加载了，先准备应用页表，由于所有操作均在内核区中进行，所以可以直接先切换到新页表
    uint32_t old_page_dir = task->tss.cr3;
   11f97:	8b 45 f4             	mov    -0xc(%ebp),%eax
   11f9a:	8b 80 74 02 00 00    	mov    0x274(%eax),%eax
   11fa0:	89 45 f0             	mov    %eax,-0x10(%ebp)
    uint32_t new_page_dir = memory_create_uvm();
   11fa3:	e8 f8 e7 ff ff       	call   107a0 <memory_create_uvm>
   11fa8:	89 45 ec             	mov    %eax,-0x14(%ebp)
    if (!new_page_dir)
   11fab:	83 7d ec 00          	cmpl   $0x0,-0x14(%ebp)
   11faf:	0f 84 2d 01 00 00    	je     120e2 <sys_execve+0x17e>
    {
        goto exec_failed;
    }
    // 加载elf文件到内存中。要放在开启新页表之后，这样才能对相应的内存区域写
    uint32_t entry = load_elf_file(task, name, new_page_dir); // 暂时置用task->name表示
   11fb5:	83 ec 04             	sub    $0x4,%esp
   11fb8:	ff 75 ec             	pushl  -0x14(%ebp)
   11fbb:	ff 75 08             	pushl  0x8(%ebp)
   11fbe:	ff 75 f4             	pushl  -0xc(%ebp)
   11fc1:	e8 5b fc ff ff       	call   11c21 <load_elf_file>
   11fc6:	83 c4 10             	add    $0x10,%esp
   11fc9:	89 45 e8             	mov    %eax,-0x18(%ebp)
    if (entry == 0)
   11fcc:	83 7d e8 00          	cmpl   $0x0,-0x18(%ebp)
   11fd0:	0f 84 0f 01 00 00    	je     120e5 <sys_execve+0x181>
    {
        goto exec_failed;
    }

    // 准备用户栈空间，预留环境环境及参数的空间
    uint32_t stack_top = MEM_TASK_STACK_TOP - MEM_TASK_ARG_SIZE; // 预留一部分参数空间
   11fd6:	c7 45 e4 00 c0 ff df 	movl   $0xdfffc000,-0x1c(%ebp)
    int err = memory_alloc_for_page_dir(new_page_dir,
   11fdd:	6a 07                	push   $0x7
   11fdf:	68 00 40 1f 00       	push   $0x1f4000
   11fe4:	68 00 c0 e0 df       	push   $0xdfe0c000
   11fe9:	ff 75 ec             	pushl  -0x14(%ebp)
   11fec:	e8 61 eb ff ff       	call   10b52 <memory_alloc_for_page_dir>
   11ff1:	83 c4 10             	add    $0x10,%esp
   11ff4:	89 45 e0             	mov    %eax,-0x20(%ebp)
                                        MEM_TASK_STACK_TOP - MEM_TASK_STACK_SIZE,
                                        MEM_TASK_STACK_SIZE, PTE_P | PTE_U | PTE_W);
    if (err < 0)
   11ff7:	83 7d e0 00          	cmpl   $0x0,-0x20(%ebp)
   11ffb:	0f 88 e7 00 00 00    	js     120e8 <sys_execve+0x184>
    {
        goto exec_failed;
    }

    // 复制参数，写入到栈顶的后边
    int argc = strings_count(argv);
   12001:	83 ec 0c             	sub    $0xc,%esp
   12004:	ff 75 0c             	pushl  0xc(%ebp)
   12007:	e8 66 3b 00 00       	call   15b72 <strings_count>
   1200c:	83 c4 10             	add    $0x10,%esp
   1200f:	89 45 dc             	mov    %eax,-0x24(%ebp)
    err = copy_args((char *)stack_top, new_page_dir, argc, argv);
   12012:	8b 45 e4             	mov    -0x1c(%ebp),%eax
   12015:	ff 75 0c             	pushl  0xc(%ebp)
   12018:	ff 75 dc             	pushl  -0x24(%ebp)
   1201b:	ff 75 ec             	pushl  -0x14(%ebp)
   1201e:	50                   	push   %eax
   1201f:	e8 10 fe ff ff       	call   11e34 <copy_args>
   12024:	83 c4 10             	add    $0x10,%esp
   12027:	89 45 e0             	mov    %eax,-0x20(%ebp)
    if (err < 0)
   1202a:	83 7d e0 00          	cmpl   $0x0,-0x20(%ebp)
   1202e:	0f 88 b7 00 00 00    	js     120eb <sys_execve+0x187>

    // 加载完毕，为程序的执行做必要准备
    // 注意，exec的作用是替换掉当前进程，所以只要改变当前进程的执行流即可
    // 当该进程恢复运行时，像完全重新运行一样，所以用户栈要设置成初始模式
    // 运行地址要设备成整个程序的入口地址
    syscall_frame_t *frame = (syscall_frame_t *)(task->tss.esp0 - sizeof(syscall_frame_t));
   12034:	8b 45 f4             	mov    -0xc(%ebp),%eax
   12037:	8b 80 5c 02 00 00    	mov    0x25c(%eax),%eax
   1203d:	83 e8 58             	sub    $0x58,%eax
   12040:	89 45 d8             	mov    %eax,-0x28(%ebp)
    frame->eip = entry;
   12043:	8b 55 e8             	mov    -0x18(%ebp),%edx
   12046:	8b 45 d8             	mov    -0x28(%ebp),%eax
   12049:	89 50 34             	mov    %edx,0x34(%eax)
    frame->eax = frame->ebx = frame->ecx = frame->edx = 0;
   1204c:	8b 45 d8             	mov    -0x28(%ebp),%eax
   1204f:	c7 40 28 00 00 00 00 	movl   $0x0,0x28(%eax)
   12056:	8b 45 d8             	mov    -0x28(%ebp),%eax
   12059:	8b 50 28             	mov    0x28(%eax),%edx
   1205c:	8b 45 d8             	mov    -0x28(%ebp),%eax
   1205f:	89 50 2c             	mov    %edx,0x2c(%eax)
   12062:	8b 45 d8             	mov    -0x28(%ebp),%eax
   12065:	8b 50 2c             	mov    0x2c(%eax),%edx
   12068:	8b 45 d8             	mov    -0x28(%ebp),%eax
   1206b:	89 50 24             	mov    %edx,0x24(%eax)
   1206e:	8b 45 d8             	mov    -0x28(%ebp),%eax
   12071:	8b 50 24             	mov    0x24(%eax),%edx
   12074:	8b 45 d8             	mov    -0x28(%ebp),%eax
   12077:	89 50 30             	mov    %edx,0x30(%eax)
    frame->esi = frame->edi = frame->ebp = 0;
   1207a:	8b 45 d8             	mov    -0x28(%ebp),%eax
   1207d:	c7 40 1c 00 00 00 00 	movl   $0x0,0x1c(%eax)
   12084:	8b 45 d8             	mov    -0x28(%ebp),%eax
   12087:	8b 50 1c             	mov    0x1c(%eax),%edx
   1208a:	8b 45 d8             	mov    -0x28(%ebp),%eax
   1208d:	89 50 14             	mov    %edx,0x14(%eax)
   12090:	8b 45 d8             	mov    -0x28(%ebp),%eax
   12093:	8b 50 14             	mov    0x14(%eax),%edx
   12096:	8b 45 d8             	mov    -0x28(%ebp),%eax
   12099:	89 50 18             	mov    %edx,0x18(%eax)
    frame->eflags = EFLAGS_DEFAULT | EFLAGS_IF; // 段寄存器无需修改
   1209c:	8b 45 d8             	mov    -0x28(%ebp),%eax
   1209f:	c7 00 02 02 00 00    	movl   $0x202,(%eax)

    // 内核栈不用设置，保持不变，后面调用memory_destroy_uvm并不会销毁内核栈的映射。
    // 但用户栈需要更改, 同样要加上调用门的参数压栈空间
    frame->esp = stack_top - sizeof(uint32_t) * SYSCALL_PARAM_COUNT;
   120a5:	8b 45 e4             	mov    -0x1c(%ebp),%eax
   120a8:	83 e8 14             	sub    $0x14,%eax
   120ab:	89 c2                	mov    %eax,%edx
   120ad:	8b 45 d8             	mov    -0x28(%ebp),%eax
   120b0:	89 50 50             	mov    %edx,0x50(%eax)

    // 切换到新的页表
    task->tss.cr3 = new_page_dir;
   120b3:	8b 45 f4             	mov    -0xc(%ebp),%eax
   120b6:	8b 55 ec             	mov    -0x14(%ebp),%edx
   120b9:	89 90 74 02 00 00    	mov    %edx,0x274(%eax)
    mmu_set_page_dir(new_page_dir); // 切换至新的页表。由于不用访问原栈及数据，所以并无问题
   120bf:	83 ec 0c             	sub    $0xc,%esp
   120c2:	ff 75 ec             	pushl  -0x14(%ebp)
   120c5:	e8 25 ef ff ff       	call   10fef <mmu_set_page_dir>
   120ca:	83 c4 10             	add    $0x10,%esp

    // 调整页表，切换成新的，同时释放掉之前的
    // 当前使用的是内核栈，而内核栈并未映射到进程地址空间中，所以下面的释放没有问题
    memory_destroy_uvm(old_page_dir); // 再释放掉了原进程的内容空间
   120cd:	83 ec 0c             	sub    $0xc,%esp
   120d0:	ff 75 f0             	pushl  -0x10(%ebp)
   120d3:	e8 4d e7 ff ff       	call   10825 <memory_destroy_uvm>
   120d8:	83 c4 10             	add    $0x10,%esp

    // 当从系统调用中返回时，将切换至新进程的入口地址运行，并且进程能够获取参数
    // 注意，如果用户栈设置不当，可能导致返回后运行出现异常。可在gdb中使用nexti单步观察运行流程
    return 0;
   120db:	b8 00 00 00 00       	mov    $0x0,%eax
   120e0:	eb 3d                	jmp    1211f <sys_execve+0x1bb>
        goto exec_failed;
   120e2:	90                   	nop
   120e3:	eb 07                	jmp    120ec <sys_execve+0x188>
        goto exec_failed;
   120e5:	90                   	nop
   120e6:	eb 04                	jmp    120ec <sys_execve+0x188>
        goto exec_failed;
   120e8:	90                   	nop
   120e9:	eb 01                	jmp    120ec <sys_execve+0x188>
        goto exec_failed;
   120eb:	90                   	nop

exec_failed: // 必要的资源释放
    if (new_page_dir)
   120ec:	83 7d ec 00          	cmpl   $0x0,-0x14(%ebp)
   120f0:	74 28                	je     1211a <sys_execve+0x1b6>
    {
        // 有页表空间切换，切换至旧页表，销毁新页表
        task->tss.cr3 = old_page_dir;
   120f2:	8b 45 f4             	mov    -0xc(%ebp),%eax
   120f5:	8b 55 f0             	mov    -0x10(%ebp),%edx
   120f8:	89 90 74 02 00 00    	mov    %edx,0x274(%eax)
        mmu_set_page_dir(old_page_dir);
   120fe:	83 ec 0c             	sub    $0xc,%esp
   12101:	ff 75 f0             	pushl  -0x10(%ebp)
   12104:	e8 e6 ee ff ff       	call   10fef <mmu_set_page_dir>
   12109:	83 c4 10             	add    $0x10,%esp
        memory_destroy_uvm(new_page_dir);
   1210c:	83 ec 0c             	sub    $0xc,%esp
   1210f:	ff 75 ec             	pushl  -0x14(%ebp)
   12112:	e8 0e e7 ff ff       	call   10825 <memory_destroy_uvm>
   12117:	83 c4 10             	add    $0x10,%esp
    }
    return -1;
   1211a:	b8 ff ff ff ff       	mov    $0xffffffff,%eax
}
   1211f:	c9                   	leave  
   12120:	c3                   	ret    

00012121 <sys_yield>:

/**
 * @brief 当前任务主动放弃CPU
 */
int sys_yield(void)
{
   12121:	55                   	push   %ebp
   12122:	89 e5                	mov    %esp,%ebp
   12124:	83 ec 18             	sub    $0x18,%esp
    irq_state_t state = irq_enter_protection();
   12127:	e8 b5 0c 00 00       	call   12de1 <irq_enter_protection>
   1212c:	89 45 f4             	mov    %eax,-0xc(%ebp)

    if (list_count(&task_manager.ready_list) > 1)
   1212f:	83 ec 0c             	sub    $0xc,%esp
   12132:	68 04 d0 01 00       	push   $0x1d004
   12137:	e8 7f ee ff ff       	call   10fbb <list_count>
   1213c:	83 c4 10             	add    $0x10,%esp
   1213f:	83 f8 01             	cmp    $0x1,%eax
   12142:	7e 29                	jle    1216d <sys_yield+0x4c>
    {
        task_t *curr_task = task_current();
   12144:	e8 38 f4 ff ff       	call   11581 <task_current>
   12149:	89 45 f0             	mov    %eax,-0x10(%ebp)

        // 如果队列中还有其它任务，则将当前任务移入到队列尾部
        task_set_block(curr_task);
   1214c:	83 ec 0c             	sub    $0xc,%esp
   1214f:	ff 75 f0             	pushl  -0x10(%ebp)
   12152:	e8 ff f3 ff ff       	call   11556 <task_set_block>
   12157:	83 c4 10             	add    $0x10,%esp
        task_set_ready(curr_task);
   1215a:	83 ec 0c             	sub    $0xc,%esp
   1215d:	ff 75 f0             	pushl  -0x10(%ebp)
   12160:	e8 bd f3 ff ff       	call   11522 <task_set_ready>
   12165:	83 c4 10             	add    $0x10,%esp

        // 切换至下一个任务，在切换完成前要保护，不然可能下一任务
        // 由于某些原因运行后阻塞或删除，再回到这里切换将发生问题
        task_dispatch();
   12168:	e8 c2 f4 ff ff       	call   1162f <task_dispatch>
    }
    irq_leave_protection(state);
   1216d:	83 ec 0c             	sub    $0xc,%esp
   12170:	ff 75 f4             	pushl  -0xc(%ebp)
   12173:	e8 81 0c 00 00       	call   12df9 <irq_leave_protection>
   12178:	83 c4 10             	add    $0x10,%esp

    return 0;
   1217b:	b8 00 00 00 00       	mov    $0x0,%eax
}
   12180:	c9                   	leave  
   12181:	c3                   	ret    

00012182 <task_file>:

/**
 * @brief 获取当前进程指定的文件描述符
 */
file_t *task_file(int fd)
{
   12182:	55                   	push   %ebp
   12183:	89 e5                	mov    %esp,%ebp
   12185:	83 ec 10             	sub    $0x10,%esp
    if ((fd >= 0) && (fd < TASK_OFILE_NR))
   12188:	83 7d 08 00          	cmpl   $0x0,0x8(%ebp)
   1218c:	78 1f                	js     121ad <task_file+0x2b>
   1218e:	83 7d 08 7f          	cmpl   $0x7f,0x8(%ebp)
   12192:	7f 19                	jg     121ad <task_file+0x2b>
    {
        file_t *file = task_current()->file_table[fd];
   12194:	e8 e8 f3 ff ff       	call   11581 <task_current>
   12199:	89 c2                	mov    %eax,%edx
   1219b:	8b 45 08             	mov    0x8(%ebp),%eax
   1219e:	83 c0 14             	add    $0x14,%eax
   121a1:	8b 44 82 08          	mov    0x8(%edx,%eax,4),%eax
   121a5:	89 45 fc             	mov    %eax,-0x4(%ebp)
        return file;
   121a8:	8b 45 fc             	mov    -0x4(%ebp),%eax
   121ab:	eb 05                	jmp    121b2 <task_file+0x30>
    }

    return (file_t *)0;
   121ad:	b8 00 00 00 00       	mov    $0x0,%eax
}
   121b2:	c9                   	leave  
   121b3:	c3                   	ret    

000121b4 <task_alloc_fd>:

/**
 * @brief 为指定的file分配一个新的文件id
 */
int task_alloc_fd(file_t *file)
{
   121b4:	55                   	push   %ebp
   121b5:	89 e5                	mov    %esp,%ebp
   121b7:	83 ec 10             	sub    $0x10,%esp
    task_t *task = task_current();
   121ba:	e8 c2 f3 ff ff       	call   11581 <task_current>
   121bf:	89 45 f8             	mov    %eax,-0x8(%ebp)

    for (int i = 0; i < TASK_OFILE_NR; i++)
   121c2:	c7 45 fc 00 00 00 00 	movl   $0x0,-0x4(%ebp)
   121c9:	eb 2f                	jmp    121fa <task_alloc_fd+0x46>
    {
        file_t *p = task->file_table[i];
   121cb:	8b 45 f8             	mov    -0x8(%ebp),%eax
   121ce:	8b 55 fc             	mov    -0x4(%ebp),%edx
   121d1:	83 c2 14             	add    $0x14,%edx
   121d4:	8b 44 90 08          	mov    0x8(%eax,%edx,4),%eax
   121d8:	89 45 f4             	mov    %eax,-0xc(%ebp)
        if (p == (file_t *)0)
   121db:	83 7d f4 00          	cmpl   $0x0,-0xc(%ebp)
   121df:	75 15                	jne    121f6 <task_alloc_fd+0x42>
        {
            task->file_table[i] = file;
   121e1:	8b 45 f8             	mov    -0x8(%ebp),%eax
   121e4:	8b 55 fc             	mov    -0x4(%ebp),%edx
   121e7:	8d 4a 14             	lea    0x14(%edx),%ecx
   121ea:	8b 55 08             	mov    0x8(%ebp),%edx
   121ed:	89 54 88 08          	mov    %edx,0x8(%eax,%ecx,4)
            return i;
   121f1:	8b 45 fc             	mov    -0x4(%ebp),%eax
   121f4:	eb 0f                	jmp    12205 <task_alloc_fd+0x51>
    for (int i = 0; i < TASK_OFILE_NR; i++)
   121f6:	83 45 fc 01          	addl   $0x1,-0x4(%ebp)
   121fa:	83 7d fc 7f          	cmpl   $0x7f,-0x4(%ebp)
   121fe:	7e cb                	jle    121cb <task_alloc_fd+0x17>
        }
    }

    return -1;
   12200:	b8 ff ff ff ff       	mov    $0xffffffff,%eax
}
   12205:	c9                   	leave  
   12206:	c3                   	ret    

00012207 <task_remove_fd>:

/**
 * @brief 移除任务中打开的文件fd
 */
void task_remove_fd(int fd)
{
   12207:	55                   	push   %ebp
   12208:	89 e5                	mov    %esp,%ebp
    if ((fd >= 0) && (fd < TASK_OFILE_NR))
   1220a:	83 7d 08 00          	cmpl   $0x0,0x8(%ebp)
   1220e:	78 1b                	js     1222b <task_remove_fd+0x24>
   12210:	83 7d 08 7f          	cmpl   $0x7f,0x8(%ebp)
   12214:	7f 15                	jg     1222b <task_remove_fd+0x24>
    {
        task_current()->file_table[fd] = (file_t *)0;
   12216:	e8 66 f3 ff ff       	call   11581 <task_current>
   1221b:	89 c2                	mov    %eax,%edx
   1221d:	8b 45 08             	mov    0x8(%ebp),%eax
   12220:	83 c0 14             	add    $0x14,%eax
   12223:	c7 44 82 08 00 00 00 	movl   $0x0,0x8(%edx,%eax,4)
   1222a:	00 
    }
}
   1222b:	90                   	nop
   1222c:	5d                   	pop    %ebp
   1222d:	c3                   	ret    

0001222e <lgdt>:
{
   1222e:	55                   	push   %ebp
   1222f:	89 e5                	mov    %esp,%ebp
   12231:	83 ec 10             	sub    $0x10,%esp
    gdt.start31_16 = start >> 16;
   12234:	8b 45 08             	mov    0x8(%ebp),%eax
   12237:	c1 e8 10             	shr    $0x10,%eax
   1223a:	66 89 45 fe          	mov    %ax,-0x2(%ebp)
    gdt.start15_0 = start & 0xFFFF;
   1223e:	8b 45 08             	mov    0x8(%ebp),%eax
   12241:	66 89 45 fc          	mov    %ax,-0x4(%ebp)
    gdt.limit = size - 1;
   12245:	8b 45 0c             	mov    0xc(%ebp),%eax
   12248:	83 e8 01             	sub    $0x1,%eax
   1224b:	66 89 45 fa          	mov    %ax,-0x6(%ebp)
    __asm__ __volatile__("lgdt %[g]" ::[g] "m"(gdt));
   1224f:	0f 01 55 fa          	lgdtl  -0x6(%ebp)
}
   12253:	90                   	nop
   12254:	c9                   	leave  
   12255:	c3                   	ret    

00012256 <far_jump>:
{
   12256:	55                   	push   %ebp
   12257:	89 e5                	mov    %esp,%ebp
   12259:	83 ec 10             	sub    $0x10,%esp
    uint32_t addr[] = {offset, selector};
   1225c:	8b 45 0c             	mov    0xc(%ebp),%eax
   1225f:	89 45 f8             	mov    %eax,-0x8(%ebp)
   12262:	8b 45 08             	mov    0x8(%ebp),%eax
   12265:	89 45 fc             	mov    %eax,-0x4(%ebp)
    __asm__ __volatile__("ljmpl *(%[a])" ::[a] "r"(addr));
   12268:	8d 45 f8             	lea    -0x8(%ebp),%eax
   1226b:	ff 28                	ljmp   *(%eax)
}
   1226d:	90                   	nop
   1226e:	c9                   	leave  
   1226f:	c3                   	ret    

00012270 <segment_desc_set>:

static segment_desc_t gdt_table[GDT_TABLE_SIZE];
static mutex_t mutex;

void segment_desc_set(int selector, uint32_t base, uint32_t limit, uint16_t attr)
{
   12270:	55                   	push   %ebp
   12271:	89 e5                	mov    %esp,%ebp
   12273:	83 ec 14             	sub    $0x14,%esp
   12276:	8b 45 14             	mov    0x14(%ebp),%eax
   12279:	66 89 45 ec          	mov    %ax,-0x14(%ebp)
    segment_desc_t *desc = gdt_table + (selector / sizeof(segment_desc_t)); //
   1227d:	8b 45 08             	mov    0x8(%ebp),%eax
   12280:	83 e0 f8             	and    $0xfffffff8,%eax
   12283:	05 e0 37 03 00       	add    $0x337e0,%eax
   12288:	89 45 fc             	mov    %eax,-0x4(%ebp)

    // 设置limit单位为4kB
    if (limit > 0xFFFF)
   1228b:	81 7d 10 ff ff 00 00 	cmpl   $0xffff,0x10(%ebp)
   12292:	76 0f                	jbe    122a3 <segment_desc_set+0x33>
    {
        attr |= SEG_G; // G 标志位
   12294:	66 81 4d ec 00 80    	orw    $0x8000,-0x14(%ebp)
        limit /= 0x1000;
   1229a:	8b 45 10             	mov    0x10(%ebp),%eax
   1229d:	c1 e8 0c             	shr    $0xc,%eax
   122a0:	89 45 10             	mov    %eax,0x10(%ebp)
    }

    desc->limit15_0 = limit & 0xFFFF;
   122a3:	8b 45 10             	mov    0x10(%ebp),%eax
   122a6:	89 c2                	mov    %eax,%edx
   122a8:	8b 45 fc             	mov    -0x4(%ebp),%eax
   122ab:	66 89 10             	mov    %dx,(%eax)
    desc->base15_0 = base & 0xFFFF;
   122ae:	8b 45 0c             	mov    0xc(%ebp),%eax
   122b1:	89 c2                	mov    %eax,%edx
   122b3:	8b 45 fc             	mov    -0x4(%ebp),%eax
   122b6:	66 89 50 02          	mov    %dx,0x2(%eax)
    desc->base23_16 = (base >> 16) & 0xFF;
   122ba:	8b 45 0c             	mov    0xc(%ebp),%eax
   122bd:	c1 e8 10             	shr    $0x10,%eax
   122c0:	89 c2                	mov    %eax,%edx
   122c2:	8b 45 fc             	mov    -0x4(%ebp),%eax
   122c5:	88 50 04             	mov    %dl,0x4(%eax)
    desc->base31_24 = (base >> 24) & 0xFF;
   122c8:	8b 45 0c             	mov    0xc(%ebp),%eax
   122cb:	c1 e8 18             	shr    $0x18,%eax
   122ce:	89 c2                	mov    %eax,%edx
   122d0:	8b 45 fc             	mov    -0x4(%ebp),%eax
   122d3:	88 50 07             	mov    %dl,0x7(%eax)
    desc->attr = attr | (((limit >> 16) & 0xFF) << 8);
   122d6:	8b 45 10             	mov    0x10(%ebp),%eax
   122d9:	c1 e8 10             	shr    $0x10,%eax
   122dc:	c1 e0 08             	shl    $0x8,%eax
   122df:	66 0b 45 ec          	or     -0x14(%ebp),%ax
   122e3:	89 c2                	mov    %eax,%edx
   122e5:	8b 45 fc             	mov    -0x4(%ebp),%eax
   122e8:	66 89 50 05          	mov    %dx,0x5(%eax)
}
   122ec:	90                   	nop
   122ed:	c9                   	leave  
   122ee:	c3                   	ret    

000122ef <gdt_free_sel>:

void gdt_free_sel(int sel)
{
   122ef:	55                   	push   %ebp
   122f0:	89 e5                	mov    %esp,%ebp
   122f2:	83 ec 08             	sub    $0x8,%esp
    mutex_lock(&mutex);
   122f5:	83 ec 0c             	sub    $0xc,%esp
   122f8:	68 e0 3f 03 00       	push   $0x33fe0
   122fd:	e8 2b 2e 00 00       	call   1512d <mutex_lock>
   12302:	83 c4 10             	add    $0x10,%esp
    gdt_table[sel / sizeof(segment_desc_t)].attr = 0;
   12305:	8b 45 08             	mov    0x8(%ebp),%eax
   12308:	c1 e8 03             	shr    $0x3,%eax
   1230b:	66 c7 04 c5 e5 37 03 	movw   $0x0,0x337e5(,%eax,8)
   12312:	00 00 00 
    mutex_unlock(&mutex);
   12315:	83 ec 0c             	sub    $0xc,%esp
   12318:	68 e0 3f 03 00       	push   $0x33fe0
   1231d:	e8 9f 2e 00 00       	call   151c1 <mutex_unlock>
   12322:	83 c4 10             	add    $0x10,%esp
}
   12325:	90                   	nop
   12326:	c9                   	leave  
   12327:	c3                   	ret    

00012328 <get_alloc_desc>:

int get_alloc_desc()
{
   12328:	55                   	push   %ebp
   12329:	89 e5                	mov    %esp,%ebp
   1232b:	83 ec 18             	sub    $0x18,%esp
    // irq_state_t state = irq_enter_protection();
    mutex_lock(&mutex);
   1232e:	83 ec 0c             	sub    $0xc,%esp
   12331:	68 e0 3f 03 00       	push   $0x33fe0
   12336:	e8 f2 2d 00 00       	call   1512d <mutex_lock>
   1233b:	83 c4 10             	add    $0x10,%esp

    for (int i = 1; i < GDT_TABLE_SIZE; i++)
   1233e:	c7 45 f4 01 00 00 00 	movl   $0x1,-0xc(%ebp)
   12345:	eb 36                	jmp    1237d <get_alloc_desc+0x55>
    {
        segment_desc_t *desc = gdt_table + i;
   12347:	8b 45 f4             	mov    -0xc(%ebp),%eax
   1234a:	c1 e0 03             	shl    $0x3,%eax
   1234d:	05 e0 37 03 00       	add    $0x337e0,%eax
   12352:	89 45 f0             	mov    %eax,-0x10(%ebp)
        if (desc->attr == 0) // 根据属性是否为0判断
   12355:	8b 45 f0             	mov    -0x10(%ebp),%eax
   12358:	0f b7 40 05          	movzwl 0x5(%eax),%eax
   1235c:	66 85 c0             	test   %ax,%ax
   1235f:	75 18                	jne    12379 <get_alloc_desc+0x51>
        {
            // irq_leave_protection(state);
            mutex_unlock(&mutex);
   12361:	83 ec 0c             	sub    $0xc,%esp
   12364:	68 e0 3f 03 00       	push   $0x33fe0
   12369:	e8 53 2e 00 00       	call   151c1 <mutex_unlock>
   1236e:	83 c4 10             	add    $0x10,%esp
            return i * sizeof(segment_desc_t);
   12371:	8b 45 f4             	mov    -0xc(%ebp),%eax
   12374:	c1 e0 03             	shl    $0x3,%eax
   12377:	eb 22                	jmp    1239b <get_alloc_desc+0x73>
    for (int i = 1; i < GDT_TABLE_SIZE; i++)
   12379:	83 45 f4 01          	addl   $0x1,-0xc(%ebp)
   1237d:	81 7d f4 ff 00 00 00 	cmpl   $0xff,-0xc(%ebp)
   12384:	7e c1                	jle    12347 <get_alloc_desc+0x1f>
        }
    }
    // irq_leave_protection(state);
    mutex_unlock(&mutex);
   12386:	83 ec 0c             	sub    $0xc,%esp
   12389:	68 e0 3f 03 00       	push   $0x33fe0
   1238e:	e8 2e 2e 00 00       	call   151c1 <mutex_unlock>
   12393:	83 c4 10             	add    $0x10,%esp
    return -1;
   12396:	b8 ff ff ff ff       	mov    $0xffffffff,%eax
}
   1239b:	c9                   	leave  
   1239c:	c3                   	ret    

0001239d <init_gdt>:

void init_gdt(void)
{
   1239d:	55                   	push   %ebp
   1239e:	89 e5                	mov    %esp,%ebp
   123a0:	83 ec 18             	sub    $0x18,%esp
    // 全部清空
    for (int i = 0; i < GDT_TABLE_SIZE; i++)
   123a3:	c7 45 f4 00 00 00 00 	movl   $0x0,-0xc(%ebp)
   123aa:	eb 19                	jmp    123c5 <init_gdt+0x28>
    {
        segment_desc_set(i * sizeof(segment_desc_t), 0, 0, 0); // 找到第几个GDT表项
   123ac:	8b 45 f4             	mov    -0xc(%ebp),%eax
   123af:	c1 e0 03             	shl    $0x3,%eax
   123b2:	6a 00                	push   $0x0
   123b4:	6a 00                	push   $0x0
   123b6:	6a 00                	push   $0x0
   123b8:	50                   	push   %eax
   123b9:	e8 b2 fe ff ff       	call   12270 <segment_desc_set>
   123be:	83 c4 10             	add    $0x10,%esp
    for (int i = 0; i < GDT_TABLE_SIZE; i++)
   123c1:	83 45 f4 01          	addl   $0x1,-0xc(%ebp)
   123c5:	81 7d f4 ff 00 00 00 	cmpl   $0xff,-0xc(%ebp)
   123cc:	7e de                	jle    123ac <init_gdt+0xf>
    }
    // 数据段
    segment_desc_set(KERNEL_SELECTOR_DS, 0, 0xFFFFFFFF,
   123ce:	68 92 40 00 00       	push   $0x4092
   123d3:	6a ff                	push   $0xffffffff
   123d5:	6a 00                	push   $0x0
   123d7:	6a 10                	push   $0x10
   123d9:	e8 92 fe ff ff       	call   12270 <segment_desc_set>
   123de:	83 c4 10             	add    $0x10,%esp
                     SEG_P_PRESENT | SEG_DPL0 | SEG_S_NORMAL | SEG_TYPE_DATA | SEG_TYPE_RW | SEG_D);
    // 代码段
    segment_desc_set(KERNEL_SELECTOR_CS, 0, 0xFFFFFFFF,
   123e1:	68 9a 40 00 00       	push   $0x409a
   123e6:	6a ff                	push   $0xffffffff
   123e8:	6a 00                	push   $0x0
   123ea:	6a 08                	push   $0x8
   123ec:	e8 7f fe ff ff       	call   12270 <segment_desc_set>
   123f1:	83 c4 10             	add    $0x10,%esp
                     SEG_P_PRESENT | SEG_DPL0 | SEG_S_NORMAL | SEG_TYPE_CODE | SEG_TYPE_RW | SEG_D);

    // 调用门
    gate_desc_set((gate_desc_t *)(gdt_table + (SELECTOR_SYSCALL >> 3)),
   123f4:	ba e6 02 01 00       	mov    $0x102e6,%edx
   123f9:	b8 f8 37 03 00       	mov    $0x337f8,%eax
   123fe:	68 05 ec 00 00       	push   $0xec05
   12403:	52                   	push   %edx
   12404:	6a 08                	push   $0x8
   12406:	50                   	push   %eax
   12407:	e8 1c 00 00 00       	call   12428 <gate_desc_set>
   1240c:	83 c4 10             	add    $0x10,%esp
                  KERNEL_SELECTOR_CS,
                  (uint32_t)exception_handler_syscall,
                  GATE_P_PRESENT | GATE_DPL3 | GATE_TYPE_SYSCALL | SYSCALL_PARAM_COUNT);
    // 重新加载GDT
    lgdt((uint32_t)gdt_table, sizeof(gdt_table));
   1240f:	b8 e0 37 03 00       	mov    $0x337e0,%eax
   12414:	83 ec 08             	sub    $0x8,%esp
   12417:	68 00 08 00 00       	push   $0x800
   1241c:	50                   	push   %eax
   1241d:	e8 0c fe ff ff       	call   1222e <lgdt>
   12422:	83 c4 10             	add    $0x10,%esp
}
   12425:	90                   	nop
   12426:	c9                   	leave  
   12427:	c3                   	ret    

00012428 <gate_desc_set>:

void gate_desc_set(gate_desc_t *desc, uint16_t selector, uint32_t offset, uint16_t attr)
{
   12428:	55                   	push   %ebp
   12429:	89 e5                	mov    %esp,%ebp
   1242b:	83 ec 08             	sub    $0x8,%esp
   1242e:	8b 55 0c             	mov    0xc(%ebp),%edx
   12431:	8b 45 14             	mov    0x14(%ebp),%eax
   12434:	66 89 55 fc          	mov    %dx,-0x4(%ebp)
   12438:	66 89 45 f8          	mov    %ax,-0x8(%ebp)
    desc->offset15_0 = offset & 0xFFFF;
   1243c:	8b 45 10             	mov    0x10(%ebp),%eax
   1243f:	89 c2                	mov    %eax,%edx
   12441:	8b 45 08             	mov    0x8(%ebp),%eax
   12444:	66 89 10             	mov    %dx,(%eax)
    desc->selector = selector;
   12447:	8b 45 08             	mov    0x8(%ebp),%eax
   1244a:	0f b7 55 fc          	movzwl -0x4(%ebp),%edx
   1244e:	66 89 50 02          	mov    %dx,0x2(%eax)
    desc->attr = attr;
   12452:	8b 45 08             	mov    0x8(%ebp),%eax
   12455:	0f b7 55 f8          	movzwl -0x8(%ebp),%edx
   12459:	66 89 50 04          	mov    %dx,0x4(%eax)
    desc->offset31_16 = (offset >> 16) & 0xFFFFF;
   1245d:	8b 45 10             	mov    0x10(%ebp),%eax
   12460:	c1 e8 10             	shr    $0x10,%eax
   12463:	89 c2                	mov    %eax,%edx
   12465:	8b 45 08             	mov    0x8(%ebp),%eax
   12468:	66 89 50 06          	mov    %dx,0x6(%eax)
}
   1246c:	90                   	nop
   1246d:	c9                   	leave  
   1246e:	c3                   	ret    

0001246f <cpu_init>:

void cpu_init(void)
{
   1246f:	55                   	push   %ebp
   12470:	89 e5                	mov    %esp,%ebp
   12472:	83 ec 08             	sub    $0x8,%esp
    mutex_init(&mutex);
   12475:	83 ec 0c             	sub    $0xc,%esp
   12478:	68 e0 3f 03 00       	push   $0x33fe0
   1247d:	e8 7d 2c 00 00       	call   150ff <mutex_init>
   12482:	83 c4 10             	add    $0x10,%esp
    init_gdt();
   12485:	e8 13 ff ff ff       	call   1239d <init_gdt>
}
   1248a:	90                   	nop
   1248b:	c9                   	leave  
   1248c:	c3                   	ret    

0001248d <switch_to_tss>:

void switch_to_tss(uint32_t tss_selector)
{
   1248d:	55                   	push   %ebp
   1248e:	89 e5                	mov    %esp,%ebp
    far_jump(tss_selector, 0);
   12490:	6a 00                	push   $0x0
   12492:	ff 75 08             	pushl  0x8(%ebp)
   12495:	e8 bc fd ff ff       	call   12256 <far_jump>
   1249a:	83 c4 08             	add    $0x8,%esp
   1249d:	90                   	nop
   1249e:	c9                   	leave  
   1249f:	c3                   	ret    

000124a0 <inb>:
{
   124a0:	55                   	push   %ebp
   124a1:	89 e5                	mov    %esp,%ebp
   124a3:	83 ec 14             	sub    $0x14,%esp
   124a6:	8b 45 08             	mov    0x8(%ebp),%eax
   124a9:	66 89 45 ec          	mov    %ax,-0x14(%ebp)
    __asm__ __volatile__("inb %[p], %[v]" : [v] "=a"(rv) : [p] "d"(port));
   124ad:	0f b7 45 ec          	movzwl -0x14(%ebp),%eax
   124b1:	89 c2                	mov    %eax,%edx
   124b3:	ec                   	in     (%dx),%al
   124b4:	88 45 ff             	mov    %al,-0x1(%ebp)
    return rv;
   124b7:	0f b6 45 ff          	movzbl -0x1(%ebp),%eax
}
   124bb:	c9                   	leave  
   124bc:	c3                   	ret    

000124bd <outb>:
{
   124bd:	55                   	push   %ebp
   124be:	89 e5                	mov    %esp,%ebp
   124c0:	83 ec 08             	sub    $0x8,%esp
   124c3:	8b 55 08             	mov    0x8(%ebp),%edx
   124c6:	8b 45 0c             	mov    0xc(%ebp),%eax
   124c9:	66 89 55 fc          	mov    %dx,-0x4(%ebp)
   124cd:	88 45 f8             	mov    %al,-0x8(%ebp)
    __asm__ __volatile__("outb %[v], %[p]" ::[p] "d"(port), [v] "a"(data));
   124d0:	0f b7 55 fc          	movzwl -0x4(%ebp),%edx
   124d4:	0f b6 45 f8          	movzbl -0x8(%ebp),%eax
   124d8:	ee                   	out    %al,(%dx)
}
   124d9:	90                   	nop
   124da:	c9                   	leave  
   124db:	c3                   	ret    

000124dc <cli>:
{
   124dc:	55                   	push   %ebp
   124dd:	89 e5                	mov    %esp,%ebp
    __asm__ __volatile__("cli");
   124df:	fa                   	cli    
}
   124e0:	90                   	nop
   124e1:	5d                   	pop    %ebp
   124e2:	c3                   	ret    

000124e3 <sti>:
{
   124e3:	55                   	push   %ebp
   124e4:	89 e5                	mov    %esp,%ebp
    __asm__ __volatile__("sti");
   124e6:	fb                   	sti    
}
   124e7:	90                   	nop
   124e8:	5d                   	pop    %ebp
   124e9:	c3                   	ret    

000124ea <lidt>:
{
   124ea:	55                   	push   %ebp
   124eb:	89 e5                	mov    %esp,%ebp
   124ed:	83 ec 10             	sub    $0x10,%esp
    idt.start31_16 = start >> 16;
   124f0:	8b 45 08             	mov    0x8(%ebp),%eax
   124f3:	c1 e8 10             	shr    $0x10,%eax
   124f6:	66 89 45 fe          	mov    %ax,-0x2(%ebp)
    idt.start15_0 = start & 0xFFFF;
   124fa:	8b 45 08             	mov    0x8(%ebp),%eax
   124fd:	66 89 45 fc          	mov    %ax,-0x4(%ebp)
    idt.limit = size - 1;
   12501:	8b 45 0c             	mov    0xc(%ebp),%eax
   12504:	83 e8 01             	sub    $0x1,%eax
   12507:	66 89 45 fa          	mov    %ax,-0x6(%ebp)
    __asm__ __volatile__("lidt %[g]" ::[g] "m"(idt));
   1250b:	0f 01 5d fa          	lidtl  -0x6(%ebp)
}
   1250f:	90                   	nop
   12510:	c9                   	leave  
   12511:	c3                   	ret    

00012512 <read_cr2>:
{
   12512:	55                   	push   %ebp
   12513:	89 e5                	mov    %esp,%ebp
   12515:	83 ec 10             	sub    $0x10,%esp
    __asm__ __volatile__("mov %%cr2, %[v]" : [v] "=r"(cr2));
   12518:	0f 20 d0             	mov    %cr2,%eax
   1251b:	89 45 fc             	mov    %eax,-0x4(%ebp)
    return cr2;
   1251e:	8b 45 fc             	mov    -0x4(%ebp),%eax
}
   12521:	c9                   	leave  
   12522:	c3                   	ret    

00012523 <hlt>:
{
   12523:	55                   	push   %ebp
   12524:	89 e5                	mov    %esp,%ebp
    __asm__ __volatile__("hlt");
   12526:	f4                   	hlt    
}
   12527:	90                   	nop
   12528:	5d                   	pop    %ebp
   12529:	c3                   	ret    

0001252a <read_eflags>:

static inline uint32_t read_eflags(void)
{
   1252a:	55                   	push   %ebp
   1252b:	89 e5                	mov    %esp,%ebp
   1252d:	83 ec 10             	sub    $0x10,%esp
    uint32_t eflags;

    __asm__ __volatile__("pushfl\n\tpopl %%eax" : "=a"(eflags));
   12530:	9c                   	pushf  
   12531:	58                   	pop    %eax
   12532:	89 45 fc             	mov    %eax,-0x4(%ebp)
    return eflags;
   12535:	8b 45 fc             	mov    -0x4(%ebp),%eax
}
   12538:	c9                   	leave  
   12539:	c3                   	ret    

0001253a <write_eflags>:

static inline void write_eflags(uint32_t eflags)
{
   1253a:	55                   	push   %ebp
   1253b:	89 e5                	mov    %esp,%ebp
    __asm__ __volatile__("pushl %%eax\n\tpopfl" ::"a"(eflags));
   1253d:	8b 45 08             	mov    0x8(%ebp),%eax
   12540:	50                   	push   %eax
   12541:	9d                   	popf   
}
   12542:	90                   	nop
   12543:	5d                   	pop    %ebp
   12544:	c3                   	ret    

00012545 <dump_core_regs>:
#define IDT_TABLE_NR 128

static gate_desc_t idt_table[IDT_TABLE_NR];

static void dump_core_regs(exception_frame_t *frame)
{
   12545:	55                   	push   %ebp
   12546:	89 e5                	mov    %esp,%ebp
   12548:	57                   	push   %edi
   12549:	56                   	push   %esi
   1254a:	53                   	push   %ebx
   1254b:	83 ec 2c             	sub    $0x2c,%esp
    uint32_t esp, ss;
    if (frame->cs & 0x7)
   1254e:	8b 45 08             	mov    0x8(%ebp),%eax
   12551:	8b 40 3c             	mov    0x3c(%eax),%eax
   12554:	83 e0 07             	and    $0x7,%eax
   12557:	85 c0                	test   %eax,%eax
   12559:	74 14                	je     1256f <dump_core_regs+0x2a>
    {
        ss = frame->ds;
   1255b:	8b 45 08             	mov    0x8(%ebp),%eax
   1255e:	8b 40 0c             	mov    0xc(%eax),%eax
   12561:	89 45 e0             	mov    %eax,-0x20(%ebp)
        esp = frame->esp;
   12564:	8b 45 08             	mov    0x8(%ebp),%eax
   12567:	8b 40 1c             	mov    0x1c(%eax),%eax
   1256a:	89 45 e4             	mov    %eax,-0x1c(%ebp)
   1256d:	eb 12                	jmp    12581 <dump_core_regs+0x3c>
    }
    else
    {
        ss = frame->ss3;
   1256f:	8b 45 08             	mov    0x8(%ebp),%eax
   12572:	8b 40 48             	mov    0x48(%eax),%eax
   12575:	89 45 e0             	mov    %eax,-0x20(%ebp)
        esp = frame->esp3;
   12578:	8b 45 08             	mov    0x8(%ebp),%eax
   1257b:	8b 40 44             	mov    0x44(%eax),%eax
   1257e:	89 45 e4             	mov    %eax,-0x1c(%ebp)
    }

    // 打印CPU寄存器相关内容
    log_printf("IRQ: %d, error code: %d.", frame->num, frame->err_code);
   12581:	8b 45 08             	mov    0x8(%ebp),%eax
   12584:	8b 50 34             	mov    0x34(%eax),%edx
   12587:	8b 45 08             	mov    0x8(%ebp),%eax
   1258a:	8b 40 30             	mov    0x30(%eax),%eax
   1258d:	83 ec 04             	sub    $0x4,%esp
   12590:	52                   	push   %edx
   12591:	50                   	push   %eax
   12592:	68 c0 63 01 00       	push   $0x163c0
   12597:	e8 2a 38 00 00       	call   15dc6 <log_printf>
   1259c:	83 c4 10             	add    $0x10,%esp
    log_printf("CS: %d\nDS: %d\nES: %d\nSS: %d\nFS:%d\nGS:%d",
   1259f:	8b 45 08             	mov    0x8(%ebp),%eax
   125a2:	8b 30                	mov    (%eax),%esi
   125a4:	8b 45 08             	mov    0x8(%ebp),%eax
   125a7:	8b 58 04             	mov    0x4(%eax),%ebx
   125aa:	8b 45 08             	mov    0x8(%ebp),%eax
   125ad:	8b 48 08             	mov    0x8(%eax),%ecx
   125b0:	8b 45 08             	mov    0x8(%ebp),%eax
   125b3:	8b 50 0c             	mov    0xc(%eax),%edx
   125b6:	8b 45 08             	mov    0x8(%ebp),%eax
   125b9:	8b 40 3c             	mov    0x3c(%eax),%eax
   125bc:	83 ec 04             	sub    $0x4,%esp
   125bf:	56                   	push   %esi
   125c0:	53                   	push   %ebx
   125c1:	ff 75 e0             	pushl  -0x20(%ebp)
   125c4:	51                   	push   %ecx
   125c5:	52                   	push   %edx
   125c6:	50                   	push   %eax
   125c7:	68 dc 63 01 00       	push   $0x163dc
   125cc:	e8 f5 37 00 00       	call   15dc6 <log_printf>
   125d1:	83 c4 20             	add    $0x20,%esp
               frame->cs, frame->ds, frame->es, ss, frame->fs, frame->gs);
    log_printf("EAX:0x%x\n"
   125d4:	8b 45 08             	mov    0x8(%ebp),%eax
   125d7:	8b 40 18             	mov    0x18(%eax),%eax
   125da:	89 45 d4             	mov    %eax,-0x2c(%ebp)
   125dd:	8b 45 08             	mov    0x8(%ebp),%eax
   125e0:	8b 78 14             	mov    0x14(%eax),%edi
   125e3:	8b 45 08             	mov    0x8(%ebp),%eax
   125e6:	8b 70 10             	mov    0x10(%eax),%esi
   125e9:	8b 45 08             	mov    0x8(%ebp),%eax
   125ec:	8b 58 24             	mov    0x24(%eax),%ebx
   125ef:	8b 45 08             	mov    0x8(%ebp),%eax
   125f2:	8b 48 28             	mov    0x28(%eax),%ecx
   125f5:	8b 45 08             	mov    0x8(%ebp),%eax
   125f8:	8b 50 20             	mov    0x20(%eax),%edx
   125fb:	8b 45 08             	mov    0x8(%ebp),%eax
   125fe:	8b 40 2c             	mov    0x2c(%eax),%eax
   12601:	83 ec 0c             	sub    $0xc,%esp
   12604:	ff 75 e4             	pushl  -0x1c(%ebp)
   12607:	ff 75 d4             	pushl  -0x2c(%ebp)
   1260a:	57                   	push   %edi
   1260b:	56                   	push   %esi
   1260c:	53                   	push   %ebx
   1260d:	51                   	push   %ecx
   1260e:	52                   	push   %edx
   1260f:	50                   	push   %eax
   12610:	68 04 64 01 00       	push   $0x16404
   12615:	e8 ac 37 00 00       	call   15dc6 <log_printf>
   1261a:	83 c4 30             	add    $0x30,%esp
               "ESI:0x%x\n"
               "EBP:0x%x\n"
               "ESP:0x%x\n",
               frame->eax, frame->ebx, frame->ecx, frame->edx,
               frame->edi, frame->esi, frame->ebp, esp);
    log_printf("EIP:0x%x\nEFLAGS:0x%x\n", frame->eip, frame->eflags);
   1261d:	8b 45 08             	mov    0x8(%ebp),%eax
   12620:	8b 50 40             	mov    0x40(%eax),%edx
   12623:	8b 45 08             	mov    0x8(%ebp),%eax
   12626:	8b 40 38             	mov    0x38(%eax),%eax
   12629:	83 ec 04             	sub    $0x4,%esp
   1262c:	52                   	push   %edx
   1262d:	50                   	push   %eax
   1262e:	68 4d 64 01 00       	push   $0x1644d
   12633:	e8 8e 37 00 00       	call   15dc6 <log_printf>
   12638:	83 c4 10             	add    $0x10,%esp
}
   1263b:	90                   	nop
   1263c:	8d 65 f4             	lea    -0xc(%ebp),%esp
   1263f:	5b                   	pop    %ebx
   12640:	5e                   	pop    %esi
   12641:	5f                   	pop    %edi
   12642:	5d                   	pop    %ebp
   12643:	c3                   	ret    

00012644 <do_default_handler>:

static void do_default_handler(exception_frame_t *frame, const char *msg)
{
   12644:	55                   	push   %ebp
   12645:	89 e5                	mov    %esp,%ebp
   12647:	83 ec 08             	sub    $0x8,%esp
    log_printf("--------------------------------");
   1264a:	83 ec 0c             	sub    $0xc,%esp
   1264d:	68 64 64 01 00       	push   $0x16464
   12652:	e8 6f 37 00 00       	call   15dc6 <log_printf>
   12657:	83 c4 10             	add    $0x10,%esp
    log_printf("IRQ/Exception happend: %s.", msg);
   1265a:	83 ec 08             	sub    $0x8,%esp
   1265d:	ff 75 0c             	pushl  0xc(%ebp)
   12660:	68 85 64 01 00       	push   $0x16485
   12665:	e8 5c 37 00 00       	call   15dc6 <log_printf>
   1266a:	83 c4 10             	add    $0x10,%esp

    dump_core_regs(frame); // 打印寄存器
   1266d:	83 ec 0c             	sub    $0xc,%esp
   12670:	ff 75 08             	pushl  0x8(%ebp)
   12673:	e8 cd fe ff ff       	call   12545 <dump_core_regs>
   12678:	83 c4 10             	add    $0x10,%esp
    log_printf("--------------------------------");
   1267b:	83 ec 0c             	sub    $0xc,%esp
   1267e:	68 64 64 01 00       	push   $0x16464
   12683:	e8 3e 37 00 00       	call   15dc6 <log_printf>
   12688:	83 c4 10             	add    $0x10,%esp
    for (;;)
    {
        hlt();
   1268b:	e8 93 fe ff ff       	call   12523 <hlt>
   12690:	eb f9                	jmp    1268b <do_default_handler+0x47>

00012692 <do_handler_unknown>:
    }
}

void do_handler_unknown(exception_frame_t *frame)
{
   12692:	55                   	push   %ebp
   12693:	89 e5                	mov    %esp,%ebp
   12695:	83 ec 08             	sub    $0x8,%esp
    do_default_handler(frame, "unknown exception");
   12698:	83 ec 08             	sub    $0x8,%esp
   1269b:	68 a0 64 01 00       	push   $0x164a0
   126a0:	ff 75 08             	pushl  0x8(%ebp)
   126a3:	e8 9c ff ff ff       	call   12644 <do_default_handler>
   126a8:	83 c4 10             	add    $0x10,%esp
}
   126ab:	90                   	nop
   126ac:	c9                   	leave  
   126ad:	c3                   	ret    

000126ae <do_handler_divider>:

void do_handler_divider(exception_frame_t *frame)
{
   126ae:	55                   	push   %ebp
   126af:	89 e5                	mov    %esp,%ebp
   126b1:	83 ec 08             	sub    $0x8,%esp
    do_default_handler(frame, "divider exception");
   126b4:	83 ec 08             	sub    $0x8,%esp
   126b7:	68 b2 64 01 00       	push   $0x164b2
   126bc:	ff 75 08             	pushl  0x8(%ebp)
   126bf:	e8 80 ff ff ff       	call   12644 <do_default_handler>
   126c4:	83 c4 10             	add    $0x10,%esp
}
   126c7:	90                   	nop
   126c8:	c9                   	leave  
   126c9:	c3                   	ret    

000126ca <do_handler_Debug>:

void do_handler_Debug(exception_frame_t *frame)
{
   126ca:	55                   	push   %ebp
   126cb:	89 e5                	mov    %esp,%ebp
   126cd:	83 ec 08             	sub    $0x8,%esp
    do_default_handler(frame, "Debug Exception");
   126d0:	83 ec 08             	sub    $0x8,%esp
   126d3:	68 c4 64 01 00       	push   $0x164c4
   126d8:	ff 75 08             	pushl  0x8(%ebp)
   126db:	e8 64 ff ff ff       	call   12644 <do_default_handler>
   126e0:	83 c4 10             	add    $0x10,%esp
}
   126e3:	90                   	nop
   126e4:	c9                   	leave  
   126e5:	c3                   	ret    

000126e6 <do_handler_NMI>:

void do_handler_NMI(exception_frame_t *frame)
{
   126e6:	55                   	push   %ebp
   126e7:	89 e5                	mov    %esp,%ebp
   126e9:	83 ec 08             	sub    $0x8,%esp
    do_default_handler(frame, "NMI Interrupt.");
   126ec:	83 ec 08             	sub    $0x8,%esp
   126ef:	68 d4 64 01 00       	push   $0x164d4
   126f4:	ff 75 08             	pushl  0x8(%ebp)
   126f7:	e8 48 ff ff ff       	call   12644 <do_default_handler>
   126fc:	83 c4 10             	add    $0x10,%esp
}
   126ff:	90                   	nop
   12700:	c9                   	leave  
   12701:	c3                   	ret    

00012702 <do_handler_breakpoint>:

void do_handler_breakpoint(exception_frame_t *frame)
{
   12702:	55                   	push   %ebp
   12703:	89 e5                	mov    %esp,%ebp
   12705:	83 ec 08             	sub    $0x8,%esp
    do_default_handler(frame, "Breakpoint.");
   12708:	83 ec 08             	sub    $0x8,%esp
   1270b:	68 e3 64 01 00       	push   $0x164e3
   12710:	ff 75 08             	pushl  0x8(%ebp)
   12713:	e8 2c ff ff ff       	call   12644 <do_default_handler>
   12718:	83 c4 10             	add    $0x10,%esp
}
   1271b:	90                   	nop
   1271c:	c9                   	leave  
   1271d:	c3                   	ret    

0001271e <do_handler_overflow>:

void do_handler_overflow(exception_frame_t *frame)
{
   1271e:	55                   	push   %ebp
   1271f:	89 e5                	mov    %esp,%ebp
   12721:	83 ec 08             	sub    $0x8,%esp
    do_default_handler(frame, "Overflow.");
   12724:	83 ec 08             	sub    $0x8,%esp
   12727:	68 ef 64 01 00       	push   $0x164ef
   1272c:	ff 75 08             	pushl  0x8(%ebp)
   1272f:	e8 10 ff ff ff       	call   12644 <do_default_handler>
   12734:	83 c4 10             	add    $0x10,%esp
}
   12737:	90                   	nop
   12738:	c9                   	leave  
   12739:	c3                   	ret    

0001273a <do_handler_bound_range>:

void do_handler_bound_range(exception_frame_t *frame)
{
   1273a:	55                   	push   %ebp
   1273b:	89 e5                	mov    %esp,%ebp
   1273d:	83 ec 08             	sub    $0x8,%esp
    do_default_handler(frame, "BOUND Range Exceeded.");
   12740:	83 ec 08             	sub    $0x8,%esp
   12743:	68 f9 64 01 00       	push   $0x164f9
   12748:	ff 75 08             	pushl  0x8(%ebp)
   1274b:	e8 f4 fe ff ff       	call   12644 <do_default_handler>
   12750:	83 c4 10             	add    $0x10,%esp
}
   12753:	90                   	nop
   12754:	c9                   	leave  
   12755:	c3                   	ret    

00012756 <do_handler_invalid_opcode>:

void do_handler_invalid_opcode(exception_frame_t *frame)
{
   12756:	55                   	push   %ebp
   12757:	89 e5                	mov    %esp,%ebp
   12759:	83 ec 08             	sub    $0x8,%esp
    do_default_handler(frame, "Invalid Opcode.");
   1275c:	83 ec 08             	sub    $0x8,%esp
   1275f:	68 0f 65 01 00       	push   $0x1650f
   12764:	ff 75 08             	pushl  0x8(%ebp)
   12767:	e8 d8 fe ff ff       	call   12644 <do_default_handler>
   1276c:	83 c4 10             	add    $0x10,%esp
}
   1276f:	90                   	nop
   12770:	c9                   	leave  
   12771:	c3                   	ret    

00012772 <do_handler_device_unavailable>:

void do_handler_device_unavailable(exception_frame_t *frame)
{
   12772:	55                   	push   %ebp
   12773:	89 e5                	mov    %esp,%ebp
   12775:	83 ec 08             	sub    $0x8,%esp
    do_default_handler(frame, "Device Not Available.");
   12778:	83 ec 08             	sub    $0x8,%esp
   1277b:	68 1f 65 01 00       	push   $0x1651f
   12780:	ff 75 08             	pushl  0x8(%ebp)
   12783:	e8 bc fe ff ff       	call   12644 <do_default_handler>
   12788:	83 c4 10             	add    $0x10,%esp
}
   1278b:	90                   	nop
   1278c:	c9                   	leave  
   1278d:	c3                   	ret    

0001278e <do_handler_double_fault>:

void do_handler_double_fault(exception_frame_t *frame)
{
   1278e:	55                   	push   %ebp
   1278f:	89 e5                	mov    %esp,%ebp
   12791:	83 ec 08             	sub    $0x8,%esp
    do_default_handler(frame, "Double Fault.");
   12794:	83 ec 08             	sub    $0x8,%esp
   12797:	68 35 65 01 00       	push   $0x16535
   1279c:	ff 75 08             	pushl  0x8(%ebp)
   1279f:	e8 a0 fe ff ff       	call   12644 <do_default_handler>
   127a4:	83 c4 10             	add    $0x10,%esp
}
   127a7:	90                   	nop
   127a8:	c9                   	leave  
   127a9:	c3                   	ret    

000127aa <do_handler_invalid_tss>:

void do_handler_invalid_tss(exception_frame_t *frame)
{
   127aa:	55                   	push   %ebp
   127ab:	89 e5                	mov    %esp,%ebp
   127ad:	83 ec 08             	sub    $0x8,%esp
    do_default_handler(frame, "Invalid TSS");
   127b0:	83 ec 08             	sub    $0x8,%esp
   127b3:	68 43 65 01 00       	push   $0x16543
   127b8:	ff 75 08             	pushl  0x8(%ebp)
   127bb:	e8 84 fe ff ff       	call   12644 <do_default_handler>
   127c0:	83 c4 10             	add    $0x10,%esp
}
   127c3:	90                   	nop
   127c4:	c9                   	leave  
   127c5:	c3                   	ret    

000127c6 <do_handler_segment_not_present>:

void do_handler_segment_not_present(exception_frame_t *frame)
{
   127c6:	55                   	push   %ebp
   127c7:	89 e5                	mov    %esp,%ebp
   127c9:	83 ec 08             	sub    $0x8,%esp
    do_default_handler(frame, "Segment Not Present.");
   127cc:	83 ec 08             	sub    $0x8,%esp
   127cf:	68 4f 65 01 00       	push   $0x1654f
   127d4:	ff 75 08             	pushl  0x8(%ebp)
   127d7:	e8 68 fe ff ff       	call   12644 <do_default_handler>
   127dc:	83 c4 10             	add    $0x10,%esp
}
   127df:	90                   	nop
   127e0:	c9                   	leave  
   127e1:	c3                   	ret    

000127e2 <do_handler_stack_segment_fault>:

void do_handler_stack_segment_fault(exception_frame_t *frame)
{
   127e2:	55                   	push   %ebp
   127e3:	89 e5                	mov    %esp,%ebp
   127e5:	83 ec 08             	sub    $0x8,%esp
    do_default_handler(frame, "Stack-Segment Fault.");
   127e8:	83 ec 08             	sub    $0x8,%esp
   127eb:	68 64 65 01 00       	push   $0x16564
   127f0:	ff 75 08             	pushl  0x8(%ebp)
   127f3:	e8 4c fe ff ff       	call   12644 <do_default_handler>
   127f8:	83 c4 10             	add    $0x10,%esp
}
   127fb:	90                   	nop
   127fc:	c9                   	leave  
   127fd:	c3                   	ret    

000127fe <do_handler_fpu_error>:

void do_handler_fpu_error(exception_frame_t *frame)
{
   127fe:	55                   	push   %ebp
   127ff:	89 e5                	mov    %esp,%ebp
   12801:	83 ec 08             	sub    $0x8,%esp
    do_default_handler(frame, "X87 FPU Floating Point Error.");
   12804:	83 ec 08             	sub    $0x8,%esp
   12807:	68 79 65 01 00       	push   $0x16579
   1280c:	ff 75 08             	pushl  0x8(%ebp)
   1280f:	e8 30 fe ff ff       	call   12644 <do_default_handler>
   12814:	83 c4 10             	add    $0x10,%esp
}
   12817:	90                   	nop
   12818:	c9                   	leave  
   12819:	c3                   	ret    

0001281a <do_handler_alignment_check>:

void do_handler_alignment_check(exception_frame_t *frame)
{
   1281a:	55                   	push   %ebp
   1281b:	89 e5                	mov    %esp,%ebp
   1281d:	83 ec 08             	sub    $0x8,%esp
    do_default_handler(frame, "Alignment Check.");
   12820:	83 ec 08             	sub    $0x8,%esp
   12823:	68 97 65 01 00       	push   $0x16597
   12828:	ff 75 08             	pushl  0x8(%ebp)
   1282b:	e8 14 fe ff ff       	call   12644 <do_default_handler>
   12830:	83 c4 10             	add    $0x10,%esp
}
   12833:	90                   	nop
   12834:	c9                   	leave  
   12835:	c3                   	ret    

00012836 <do_handler_machine_check>:

void do_handler_machine_check(exception_frame_t *frame)
{
   12836:	55                   	push   %ebp
   12837:	89 e5                	mov    %esp,%ebp
   12839:	83 ec 08             	sub    $0x8,%esp
    do_default_handler(frame, "Machine Check.");
   1283c:	83 ec 08             	sub    $0x8,%esp
   1283f:	68 a8 65 01 00       	push   $0x165a8
   12844:	ff 75 08             	pushl  0x8(%ebp)
   12847:	e8 f8 fd ff ff       	call   12644 <do_default_handler>
   1284c:	83 c4 10             	add    $0x10,%esp
}
   1284f:	90                   	nop
   12850:	c9                   	leave  
   12851:	c3                   	ret    

00012852 <do_handler_smd_exception>:

void do_handler_smd_exception(exception_frame_t *frame)
{
   12852:	55                   	push   %ebp
   12853:	89 e5                	mov    %esp,%ebp
   12855:	83 ec 08             	sub    $0x8,%esp
    do_default_handler(frame, "SIMD Floating Point Exception.");
   12858:	83 ec 08             	sub    $0x8,%esp
   1285b:	68 b8 65 01 00       	push   $0x165b8
   12860:	ff 75 08             	pushl  0x8(%ebp)
   12863:	e8 dc fd ff ff       	call   12644 <do_default_handler>
   12868:	83 c4 10             	add    $0x10,%esp
}
   1286b:	90                   	nop
   1286c:	c9                   	leave  
   1286d:	c3                   	ret    

0001286e <do_handler_virtual_exception>:

void do_handler_virtual_exception(exception_frame_t *frame)
{
   1286e:	55                   	push   %ebp
